	.section	__TEXT,__text,regular,pure_instructions
	.macosx_version_min 10, 12
	.file	1 "/Applications/Xcode.app/Contents/Developer/Toolchains/XcodeDefault.xctoolchain/usr/bin/../include/c++/v1" "__config"
	.file	2 "/Applications/Xcode.app/Contents/Developer/Toolchains/XcodeDefault.xctoolchain/usr/bin/../include/c++/v1" "limits"
	.file	3 "/Applications/Xcode.app/Contents/Developer/Toolchains/XcodeDefault.xctoolchain/usr/bin/../include/c++/v1" "ios"
	.file	4 "/Applications/Xcode.app/Contents/Developer/Toolchains/XcodeDefault.xctoolchain/usr/bin/../lib/clang/8.0.0/include" "stddef.h"
	.file	5 "/Applications/Xcode.app/Contents/Developer/Toolchains/XcodeDefault.xctoolchain/usr/bin/../include/c++/v1" "__locale"
	.file	6 "/Applications/Xcode.app/Contents/Developer/Toolchains/XcodeDefault.xctoolchain/usr/bin/../include/c++/v1" "string"
	.file	7 "/Applications/Xcode.app/Contents/Developer/Toolchains/XcodeDefault.xctoolchain/usr/bin/../include/c++/v1" "memory"
	.file	8 "/Applications/Xcode.app/Contents/Developer/Toolchains/XcodeDefault.xctoolchain/usr/bin/../include/c++/v1" "type_traits"
	.file	9 "/Applications/Xcode.app/Contents/Developer/Toolchains/XcodeDefault.xctoolchain/usr/bin/../include/c++/v1" "initializer_list"
	.file	10 "/Applications/Xcode.app/Contents/Developer/Toolchains/XcodeDefault.xctoolchain/usr/bin/../include/c++/v1" "iosfwd"
	.file	11 "/Applications/Xcode.app/Contents/Developer/Toolchains/XcodeDefault.xctoolchain/usr/bin/../include/c++/v1" "mutex"
	.file	12 "/Applications/Xcode.app/Contents/Developer/Platforms/MacOSX.platform/Developer/SDKs/MacOSX10.12.sdk/usr/include/sys/_types" "_int32_t.h"
	.file	13 "/Applications/Xcode.app/Contents/Developer/Toolchains/XcodeDefault.xctoolchain/usr/bin/../include/c++/v1" "iterator"
	.file	14 "/Applications/Xcode.app/Contents/Developer/Toolchains/XcodeDefault.xctoolchain/usr/bin/../include/c++/v1" "streambuf"
	.file	15 "/Applications/Xcode.app/Contents/Developer/Toolchains/XcodeDefault.xctoolchain/usr/bin/../include/c++/v1" "ostream"
	.file	16 "/Users/mdjasper/Sites/sandbox/graphics2/RayTracer/RayTracer" "Geometry.hpp"
	.file	17 "/Users/mdjasper/Sites/sandbox/graphics2/RayTracer/RayTracer" "Shape.hpp"
	.file	18 "/Applications/Xcode.app/Contents/Developer/Toolchains/XcodeDefault.xctoolchain/usr/bin/../include/c++/v1" "cstddef"
	.file	19 "/Applications/Xcode.app/Contents/Developer/Toolchains/XcodeDefault.xctoolchain/usr/bin/../lib/clang/8.0.0/include" "__stddef_max_align_t.h"
	.file	20 "/Applications/Xcode.app/Contents/Developer/Platforms/MacOSX.platform/Developer/SDKs/MacOSX10.12.sdk/usr/include/sys/_types" "_int8_t.h"
	.file	21 "/Applications/Xcode.app/Contents/Developer/Platforms/MacOSX.platform/Developer/SDKs/MacOSX10.12.sdk/usr/include/sys/_types" "_int16_t.h"
	.file	22 "/Applications/Xcode.app/Contents/Developer/Platforms/MacOSX.platform/Developer/SDKs/MacOSX10.12.sdk/usr/include/sys/_types" "_int64_t.h"
	.file	23 "/Applications/Xcode.app/Contents/Developer/Platforms/MacOSX.platform/Developer/SDKs/MacOSX10.12.sdk/usr/include/_types" "_uint8_t.h"
	.file	24 "/Applications/Xcode.app/Contents/Developer/Platforms/MacOSX.platform/Developer/SDKs/MacOSX10.12.sdk/usr/include/_types" "_uint16_t.h"
	.file	25 "/Applications/Xcode.app/Contents/Developer/Platforms/MacOSX.platform/Developer/SDKs/MacOSX10.12.sdk/usr/include/_types" "_uint32_t.h"
	.file	26 "/Applications/Xcode.app/Contents/Developer/Platforms/MacOSX.platform/Developer/SDKs/MacOSX10.12.sdk/usr/include/_types" "_uint64_t.h"
	.file	27 "/Applications/Xcode.app/Contents/Developer/Platforms/MacOSX.platform/Developer/SDKs/MacOSX10.12.sdk/usr/include" "stdint.h"
	.file	28 "/Applications/Xcode.app/Contents/Developer/Platforms/MacOSX.platform/Developer/SDKs/MacOSX10.12.sdk/usr/include/i386" "_types.h"
	.file	29 "/Applications/Xcode.app/Contents/Developer/Platforms/MacOSX.platform/Developer/SDKs/MacOSX10.12.sdk/usr/include/sys/_types" "_intptr_t.h"
	.file	30 "/Applications/Xcode.app/Contents/Developer/Platforms/MacOSX.platform/Developer/SDKs/MacOSX10.12.sdk/usr/include/sys/_types" "_uintptr_t.h"
	.file	31 "/Applications/Xcode.app/Contents/Developer/Platforms/MacOSX.platform/Developer/SDKs/MacOSX10.12.sdk/usr/include/_types" "_intmax_t.h"
	.file	32 "/Applications/Xcode.app/Contents/Developer/Platforms/MacOSX.platform/Developer/SDKs/MacOSX10.12.sdk/usr/include/_types" "_uintmax_t.h"
	.file	33 "/Applications/Xcode.app/Contents/Developer/Platforms/MacOSX.platform/Developer/SDKs/MacOSX10.12.sdk/usr/include" "string.h"
	.file	34 "/Applications/Xcode.app/Contents/Developer/Platforms/MacOSX.platform/Developer/SDKs/MacOSX10.12.sdk/usr/include" "stdio.h"
	.file	35 "/Applications/Xcode.app/Contents/Developer/Platforms/MacOSX.platform/Developer/SDKs/MacOSX10.12.sdk/usr/include/sys" "_types.h"
	.file	36 "/Applications/Xcode.app/Contents/Developer/Platforms/MacOSX.platform/Developer/SDKs/MacOSX10.12.sdk/usr/include" "ctype.h"
	.file	37 "/Applications/Xcode.app/Contents/Developer/Platforms/MacOSX.platform/Developer/SDKs/MacOSX10.12.sdk/usr/include/sys/_types" "_wint_t.h"
	.file	38 "/Applications/Xcode.app/Contents/Developer/Platforms/MacOSX.platform/Developer/SDKs/MacOSX10.12.sdk/usr/include" "_types.h"
	.file	39 "/Applications/Xcode.app/Contents/Developer/Platforms/MacOSX.platform/Developer/SDKs/MacOSX10.12.sdk/usr/include/_types" "_wctrans_t.h"
	.file	40 "/Applications/Xcode.app/Contents/Developer/Platforms/MacOSX.platform/Developer/SDKs/MacOSX10.12.sdk/usr/include/_types" "_wctype_t.h"
	.file	41 "/Applications/Xcode.app/Contents/Developer/Platforms/MacOSX.platform/Developer/SDKs/MacOSX10.12.sdk/usr/include" "_wctype.h"
	.file	42 "/Applications/Xcode.app/Contents/Developer/Platforms/MacOSX.platform/Developer/SDKs/MacOSX10.12.sdk/usr/include" "wctype.h"
	.file	43 "/Applications/Xcode.app/Contents/Developer/Platforms/MacOSX.platform/Developer/SDKs/MacOSX10.12.sdk/usr/include/sys/_types" "_mbstate_t.h"
	.file	44 "/Applications/Xcode.app/Contents/Developer/Platforms/MacOSX.platform/Developer/SDKs/MacOSX10.12.sdk/usr/include" "time.h"
	.file	45 "/Applications/Xcode.app/Contents/Developer/Platforms/MacOSX.platform/Developer/SDKs/MacOSX10.12.sdk/usr/include" "wchar.h"
	.file	46 "/Applications/Xcode.app/Contents/Developer/Platforms/MacOSX.platform/Developer/SDKs/MacOSX10.12.sdk/usr/include/sys/_types" "_clock_t.h"
	.file	47 "/Applications/Xcode.app/Contents/Developer/Platforms/MacOSX.platform/Developer/SDKs/MacOSX10.12.sdk/usr/include/sys/_types" "_time_t.h"
	.file	48 "/Applications/Xcode.app/Contents/Developer/Platforms/MacOSX.platform/Developer/SDKs/MacOSX10.12.sdk/usr/include" "stdlib.h"
	.globl	__ZN5PlaneD2Ev
	.align	4, 0x90
__ZN5PlaneD2Ev:                         ## @_ZN5PlaneD2Ev
Lfunc_begin0:
	.file	49 "/Users/mdjasper/Sites/sandbox/graphics2/RayTracer/RayTracer" "Plane.cpp"
	.loc	49 5 0                  ## /Users/mdjasper/Sites/sandbox/graphics2/RayTracer/RayTracer/Plane.cpp:5:0
	.cfi_startproc
	.cfi_personality 155, ___gxx_personality_v0
	.cfi_lsda 16, Lexception0
## BB#0:
	pushq	%rbp
Ltmp3:
	.cfi_def_cfa_offset 16
Ltmp4:
	.cfi_offset %rbp, -16
	movq	%rsp, %rbp
Ltmp5:
	.cfi_def_cfa_register %rbp
	subq	$48, %rsp
	##DEBUG_VALUE: ~Plane:this <- [%RBP+-8]
	movq	%rdi, -8(%rbp)
	movq	%rdi, %rax
	.loc	49 5 16 prologue_end    ## /Users/mdjasper/Sites/sandbox/graphics2/RayTracer/RayTracer/Plane.cpp:5:16
Ltmp6:
	leaq	__ZTV5Plane+16(%rip), %rcx
	movq	%rcx, (%rdi)
	.loc	49 6 15                 ## /Users/mdjasper/Sites/sandbox/graphics2/RayTracer/RayTracer/Plane.cpp:6:15
Ltmp7:
Ltmp0:
	movq	__ZNSt3__14coutE@GOTPCREL(%rip), %rdi
	leaq	L_.str(%rip), %rsi
	movq	%rax, -32(%rbp)         ## 8-byte Spill
	callq	__ZNSt3__1lsINS_11char_traitsIcEEEERNS_13basic_ostreamIcT_EES6_PKc
Ltmp1:
	movq	%rax, -40(%rbp)         ## 8-byte Spill
	jmp	LBB0_1
LBB0_1:
	##DEBUG_VALUE: ~Plane:this <- [%RBP+-8]
	.loc	49 7 1                  ## /Users/mdjasper/Sites/sandbox/graphics2/RayTracer/RayTracer/Plane.cpp:7:1
	movq	-32(%rbp), %rax         ## 8-byte Reload
	movq	%rax, %rdi
	callq	__ZN5ShapeD2Ev
Ltmp8:
	.loc	49 7 1 is_stmt 0        ## /Users/mdjasper/Sites/sandbox/graphics2/RayTracer/RayTracer/Plane.cpp:7:1
	addq	$48, %rsp
	popq	%rbp
	retq
LBB0_2:
	##DEBUG_VALUE: ~Plane:this <- [%RBP+-8]
Ltmp2:
	.loc	49 7 1                  ## /Users/mdjasper/Sites/sandbox/graphics2/RayTracer/RayTracer/Plane.cpp:7:1
Ltmp9:
	movl	%edx, %ecx
	movq	%rax, -16(%rbp)
	movl	%ecx, -20(%rbp)
	movq	-32(%rbp), %rax         ## 8-byte Reload
	movq	%rax, %rdi
	callq	__ZN5ShapeD2Ev
## BB#3:
	##DEBUG_VALUE: ~Plane:this <- [%RBP+-8]
	movq	-16(%rbp), %rdi
	callq	___clang_call_terminate
Ltmp10:
Lfunc_end0:
	.cfi_endproc
	.file	50 "/Users/mdjasper/Sites/sandbox/graphics2/RayTracer/RayTracer" "BBox.hpp"
	.file	51 "/Users/mdjasper/Sites/sandbox/graphics2/RayTracer/RayTracer" "Plane.hpp"
	.file	52 "/Users/mdjasper/Sites/sandbox/graphics2/RayTracer/RayTracer" "Constants.h"
	.section	__TEXT,__gcc_except_tab
	.align	2
GCC_except_table0:
Lexception0:
	.byte	255                     ## @LPStart Encoding = omit
	.byte	155                     ## @TType Encoding = indirect pcrel sdata4
	.byte	21                      ## @TType base offset
	.byte	3                       ## Call site Encoding = udata4
	.byte	13                      ## Call site table length
Lset0 = Ltmp0-Lfunc_begin0              ## >> Call Site 1 <<
	.long	Lset0
Lset1 = Ltmp1-Ltmp0                     ##   Call between Ltmp0 and Ltmp1
	.long	Lset1
Lset2 = Ltmp2-Lfunc_begin0              ##     jumps to Ltmp2
	.long	Lset2
	.byte	1                       ##   On action: 1
	.byte	1                       ## >> Action Record 1 <<
                                        ##   Catch TypeInfo 1
	.byte	0                       ##   No further actions
                                        ## >> Catch TypeInfos <<
	.long	0                       ## TypeInfo 1
	.align	2

	.section	__TEXT,__text,regular,pure_instructions
	.globl	__ZNSt3__1lsINS_11char_traitsIcEEEERNS_13basic_ostreamIcT_EES6_PKc
	.weak_def_can_be_hidden	__ZNSt3__1lsINS_11char_traitsIcEEEERNS_13basic_ostreamIcT_EES6_PKc
	.align	4, 0x90
__ZNSt3__1lsINS_11char_traitsIcEEEERNS_13basic_ostreamIcT_EES6_PKc: ## @_ZNSt3__1lsINS_11char_traitsIcEEEERNS_13basic_ostreamIcT_EES6_PKc
Lfunc_begin1:
	.loc	15 893 0 is_stmt 1      ## /Applications/Xcode.app/Contents/Developer/Toolchains/XcodeDefault.xctoolchain/usr/bin/../include/c++/v1/ostream:893:0
	.cfi_startproc
## BB#0:
	pushq	%rbp
Ltmp11:
	.cfi_def_cfa_offset 16
Ltmp12:
	.cfi_offset %rbp, -16
	movq	%rsp, %rbp
Ltmp13:
	.cfi_def_cfa_register %rbp
	subq	$32, %rsp
	movq	%rdi, -8(%rbp)
	movq	%rsi, -16(%rbp)
	.loc	15 894 44 prologue_end  ## /Applications/Xcode.app/Contents/Developer/Toolchains/XcodeDefault.xctoolchain/usr/bin/../include/c++/v1/ostream:894:44
Ltmp14:
	movq	-8(%rbp), %rdi
	.loc	15 894 50 is_stmt 0     ## /Applications/Xcode.app/Contents/Developer/Toolchains/XcodeDefault.xctoolchain/usr/bin/../include/c++/v1/ostream:894:50
	movq	-16(%rbp), %rsi
	.loc	15 894 73               ## /Applications/Xcode.app/Contents/Developer/Toolchains/XcodeDefault.xctoolchain/usr/bin/../include/c++/v1/ostream:894:73
	movq	-16(%rbp), %rax
	.loc	15 894 57               ## /Applications/Xcode.app/Contents/Developer/Toolchains/XcodeDefault.xctoolchain/usr/bin/../include/c++/v1/ostream:894:57
	movq	%rdi, -24(%rbp)         ## 8-byte Spill
	movq	%rax, %rdi
	movq	%rsi, -32(%rbp)         ## 8-byte Spill
	callq	__ZNSt3__111char_traitsIcE6lengthEPKc
	.loc	15 894 12               ## /Applications/Xcode.app/Contents/Developer/Toolchains/XcodeDefault.xctoolchain/usr/bin/../include/c++/v1/ostream:894:12
	movq	-24(%rbp), %rdi         ## 8-byte Reload
	movq	-32(%rbp), %rsi         ## 8-byte Reload
	movq	%rax, %rdx
	callq	__ZNSt3__124__put_character_sequenceIcNS_11char_traitsIcEEEERNS_13basic_ostreamIT_T0_EES7_PKS4_m
	.loc	15 894 5                ## /Applications/Xcode.app/Contents/Developer/Toolchains/XcodeDefault.xctoolchain/usr/bin/../include/c++/v1/ostream:894:5
	addq	$32, %rsp
	popq	%rbp
	retq
Ltmp15:
Lfunc_end1:
	.cfi_endproc

	.private_extern	___clang_call_terminate
	.globl	___clang_call_terminate
	.weak_def_can_be_hidden	___clang_call_terminate
	.align	4, 0x90
___clang_call_terminate:                ## @__clang_call_terminate
Lfunc_begin2:
	.cfi_startproc
## BB#0:
	pushq	%rax
Ltmp16:
	.cfi_def_cfa_offset 16
	callq	___cxa_begin_catch
	movq	%rax, (%rsp)            ## 8-byte Spill
	callq	__ZSt9terminatev
Lfunc_end2:
	.cfi_endproc

	.globl	__ZN5PlaneD1Ev
	.align	4, 0x90
__ZN5PlaneD1Ev:                         ## @_ZN5PlaneD1Ev
Lfunc_begin3:
	.loc	49 5 0 is_stmt 1        ## /Users/mdjasper/Sites/sandbox/graphics2/RayTracer/RayTracer/Plane.cpp:5:0
	.cfi_startproc
## BB#0:
	pushq	%rbp
Ltmp17:
	.cfi_def_cfa_offset 16
Ltmp18:
	.cfi_offset %rbp, -16
	movq	%rsp, %rbp
Ltmp19:
	.cfi_def_cfa_register %rbp
	subq	$16, %rsp
	movq	%rdi, -8(%rbp)
	movq	-8(%rbp), %rdi
	.loc	49 5 16 prologue_end    ## /Users/mdjasper/Sites/sandbox/graphics2/RayTracer/RayTracer/Plane.cpp:5:16
Ltmp20:
	callq	__ZN5PlaneD2Ev
	.loc	49 7 1                  ## /Users/mdjasper/Sites/sandbox/graphics2/RayTracer/RayTracer/Plane.cpp:7:1
	addq	$16, %rsp
	popq	%rbp
	retq
Ltmp21:
Lfunc_end3:
	.cfi_endproc

	.globl	__ZN5PlaneD0Ev
	.align	4, 0x90
__ZN5PlaneD0Ev:                         ## @_ZN5PlaneD0Ev
Lfunc_begin4:
	.loc	49 5 0                  ## /Users/mdjasper/Sites/sandbox/graphics2/RayTracer/RayTracer/Plane.cpp:5:0
	.cfi_startproc
## BB#0:
	pushq	%rbp
Ltmp22:
	.cfi_def_cfa_offset 16
Ltmp23:
	.cfi_offset %rbp, -16
	movq	%rsp, %rbp
Ltmp24:
	.cfi_def_cfa_register %rbp
	subq	$16, %rsp
	movq	%rdi, -8(%rbp)
	movq	-8(%rbp), %rdi
	.loc	49 5 16 prologue_end    ## /Users/mdjasper/Sites/sandbox/graphics2/RayTracer/RayTracer/Plane.cpp:5:16
Ltmp25:
	movq	%rdi, -16(%rbp)         ## 8-byte Spill
	callq	__ZN5PlaneD1Ev
	movq	-16(%rbp), %rdi         ## 8-byte Reload
	callq	__ZdlPv
	.loc	49 7 1                  ## /Users/mdjasper/Sites/sandbox/graphics2/RayTracer/RayTracer/Plane.cpp:7:1
	addq	$16, %rsp
	popq	%rbp
	retq
Ltmp26:
Lfunc_end4:
	.cfi_endproc

	.section	__TEXT,__literal8,8byte_literals
	.align	3
LCPI5_0:
	.quad	4502148214488346440     ## double 9.9999999999999995E-8
	.section	__TEXT,__text,regular,pure_instructions
	.globl	__ZNK5Plane9intersectE3Ray
	.align	4, 0x90
__ZNK5Plane9intersectE3Ray:             ## @_ZNK5Plane9intersectE3Ray
Lfunc_begin5:
	.loc	49 10 0                 ## /Users/mdjasper/Sites/sandbox/graphics2/RayTracer/RayTracer/Plane.cpp:10:0
	.cfi_startproc
## BB#0:
	pushq	%rbp
Ltmp27:
	.cfi_def_cfa_offset 16
Ltmp28:
	.cfi_offset %rbp, -16
	movq	%rsp, %rbp
Ltmp29:
	.cfi_def_cfa_register %rbp
	subq	$464, %rsp              ## imm = 0x1D0
	##DEBUG_VALUE: intersect:r <- [%RBP+16]
	movq	%rdi, %rax
	leaq	16(%rbp), %rcx
	##DEBUG_VALUE: intersect:this <- [%RBP+-104]
	movq	%rsi, -104(%rbp)
	movq	%rsi, %rdx
	.loc	49 11 2 prologue_end    ## /Users/mdjasper/Sites/sandbox/graphics2/RayTracer/RayTracer/Plane.cpp:11:2
Ltmp30:
	movl	8(%rcx), %r8d
	movl	%r8d, -112(%rbp)
	movq	(%rcx), %r9
	movq	%r9, -120(%rbp)
	.loc	49 11 9 is_stmt 0       ## /Users/mdjasper/Sites/sandbox/graphics2/RayTracer/RayTracer/Plane.cpp:11:9
	movl	16(%rsi), %r8d
	movl	%r8d, -128(%rbp)
	movq	8(%rsi), %r9
	movq	%r9, -136(%rbp)
	.loc	49 11 6                 ## /Users/mdjasper/Sites/sandbox/graphics2/RayTracer/RayTracer/Plane.cpp:11:6
	movl	-112(%rbp), %r8d
	movl	%r8d, -144(%rbp)
	movq	-120(%rbp), %r9
	movq	%r9, -152(%rbp)
	movq	-152(%rbp), %xmm0       ## xmm0 = mem[0],zero
	movss	-144(%rbp), %xmm1       ## xmm1 = mem[0],zero,zero,zero
	movl	-128(%rbp), %r8d
	movl	%r8d, -160(%rbp)
	movq	-136(%rbp), %r9
	movq	%r9, -168(%rbp)
	movq	-168(%rbp), %xmm2       ## xmm2 = mem[0],zero
	movss	-160(%rbp), %xmm3       ## xmm3 = mem[0],zero,zero,zero
	movq	%rcx, -416(%rbp)        ## 8-byte Spill
	movq	%rsi, -424(%rbp)        ## 8-byte Spill
	movq	%rax, -432(%rbp)        ## 8-byte Spill
	movq	%rdi, -440(%rbp)        ## 8-byte Spill
	movq	%rdx, -448(%rbp)        ## 8-byte Spill
	callq	__ZmII5PointET_S1_S1_
	movss	%xmm1, -192(%rbp)
	movlps	%xmm0, -200(%rbp)
	movl	-192(%rbp), %r8d
	movl	%r8d, -176(%rbp)
	movq	-200(%rbp), %rax
	movq	%rax, -184(%rbp)
	.loc	49 14 20 is_stmt 1      ## /Users/mdjasper/Sites/sandbox/graphics2/RayTracer/RayTracer/Plane.cpp:14:20
	movq	-416(%rbp), %rax        ## 8-byte Reload
	movl	20(%rax), %r8d
	movl	%r8d, -208(%rbp)
	movq	12(%rax), %rcx
	movq	%rcx, -216(%rbp)
	.loc	49 14 25 is_stmt 0      ## /Users/mdjasper/Sites/sandbox/graphics2/RayTracer/RayTracer/Plane.cpp:14:25
	movq	-424(%rbp), %rcx        ## 8-byte Reload
	movl	28(%rcx), %r8d
	movl	%r8d, -224(%rbp)
	movq	20(%rcx), %rdx
	movq	%rdx, -232(%rbp)
	.loc	49 14 16                ## /Users/mdjasper/Sites/sandbox/graphics2/RayTracer/RayTracer/Plane.cpp:14:16
	movl	-208(%rbp), %r8d
	movl	%r8d, -240(%rbp)
	movq	-216(%rbp), %rdx
	movq	%rdx, -248(%rbp)
	movq	-248(%rbp), %xmm0       ## xmm0 = mem[0],zero
	movss	-240(%rbp), %xmm1       ## xmm1 = mem[0],zero,zero,zero
	movl	-224(%rbp), %r8d
	movl	%r8d, -256(%rbp)
	movq	-232(%rbp), %rdx
	movq	%rdx, -264(%rbp)
	movq	-264(%rbp), %xmm2       ## xmm2 = mem[0],zero
	movss	-256(%rbp), %xmm3       ## xmm3 = mem[0],zero,zero,zero
	callq	__Z3dotI6VectorS0_EfT_T0_
	movsd	LCPI5_0(%rip), %xmm1    ## xmm1 = mem[0],zero
	.loc	49 14 10                ## /Users/mdjasper/Sites/sandbox/graphics2/RayTracer/RayTracer/Plane.cpp:14:10
	movss	%xmm0, -204(%rbp)
	.loc	49 15 6 is_stmt 1       ## /Users/mdjasper/Sites/sandbox/graphics2/RayTracer/RayTracer/Plane.cpp:15:6
Ltmp31:
	cvtss2sd	-204(%rbp), %xmm0
	.loc	49 15 10 is_stmt 0      ## /Users/mdjasper/Sites/sandbox/graphics2/RayTracer/RayTracer/Plane.cpp:15:10
	ucomisd	%xmm0, %xmm1
Ltmp32:
	.loc	49 15 6                 ## /Users/mdjasper/Sites/sandbox/graphics2/RayTracer/RayTracer/Plane.cpp:15:6
	jbe	LBB5_2
## BB#1:
	##DEBUG_VALUE: intersect:this <- [%RBP+-104]
	##DEBUG_VALUE: intersect:r <- [%RBP+16]
	leaq	-24(%rbp), %rax
	leaq	-48(%rbp), %rcx
	.loc	49 15 30                ## /Users/mdjasper/Sites/sandbox/graphics2/RayTracer/RayTracer/Plane.cpp:15:30
Ltmp33:
	movq	-440(%rbp), %rdx        ## 8-byte Reload
	movq	%rdx, -88(%rbp)
	movq	$0, -96(%rbp)
	movq	-88(%rbp), %rsi
	.loc	7 2584 9 is_stmt 1      ## /Applications/Xcode.app/Contents/Developer/Toolchains/XcodeDefault.xctoolchain/usr/bin/../include/c++/v1/memory:2584:9
Ltmp34:
	movq	-96(%rbp), %rdi
	movq	%rsi, -72(%rbp)
	movq	%rdi, -80(%rbp)
	movq	-72(%rbp), %rsi
	.loc	7 2583 11               ## /Applications/Xcode.app/Contents/Developer/Toolchains/XcodeDefault.xctoolchain/usr/bin/../include/c++/v1/memory:2583:11
Ltmp35:
	movq	%rsi, -56(%rbp)
	movq	$0, -64(%rbp)
	movq	-56(%rbp), %rsi
	.loc	7 2411 49               ## /Applications/Xcode.app/Contents/Developer/Toolchains/XcodeDefault.xctoolchain/usr/bin/../include/c++/v1/memory:2411:49
Ltmp36:
	movq	-64(%rbp), %rdi
	movq	%rsi, -40(%rbp)
	movq	%rdi, -48(%rbp)
	movq	-40(%rbp), %rsi
	.loc	7 2411 16 is_stmt 0     ## /Applications/Xcode.app/Contents/Developer/Toolchains/XcodeDefault.xctoolchain/usr/bin/../include/c++/v1/memory:2411:16
Ltmp37:
	movq	%rcx, -32(%rbp)
	.loc	8 1677 31 is_stmt 1     ## /Applications/Xcode.app/Contents/Developer/Toolchains/XcodeDefault.xctoolchain/usr/bin/../include/c++/v1/type_traits:1677:31
Ltmp38:
	movq	-32(%rbp), %rcx
Ltmp39:
	.loc	7 2411 16               ## /Applications/Xcode.app/Contents/Developer/Toolchains/XcodeDefault.xctoolchain/usr/bin/../include/c++/v1/memory:2411:16
	movq	(%rcx), %rcx
	.loc	7 2411 11 is_stmt 0     ## /Applications/Xcode.app/Contents/Developer/Toolchains/XcodeDefault.xctoolchain/usr/bin/../include/c++/v1/memory:2411:11
	movq	%rsi, -16(%rbp)
	movq	%rcx, -24(%rbp)
	movq	-16(%rbp), %rcx
	.loc	7 2232 20 is_stmt 1     ## /Applications/Xcode.app/Contents/Developer/Toolchains/XcodeDefault.xctoolchain/usr/bin/../include/c++/v1/memory:2232:20
Ltmp40:
	movq	%rax, -8(%rbp)
	.loc	8 1677 31               ## /Applications/Xcode.app/Contents/Developer/Toolchains/XcodeDefault.xctoolchain/usr/bin/../include/c++/v1/type_traits:1677:31
Ltmp41:
	movq	-8(%rbp), %rax
Ltmp42:
	.loc	7 2232 20               ## /Applications/Xcode.app/Contents/Developer/Toolchains/XcodeDefault.xctoolchain/usr/bin/../include/c++/v1/memory:2232:20
	movq	(%rax), %rax
	.loc	7 2232 11 is_stmt 0     ## /Applications/Xcode.app/Contents/Developer/Toolchains/XcodeDefault.xctoolchain/usr/bin/../include/c++/v1/memory:2232:11
	movq	%rax, (%rcx)
Ltmp43:
	.loc	49 15 23 is_stmt 1      ## /Users/mdjasper/Sites/sandbox/graphics2/RayTracer/RayTracer/Plane.cpp:15:23
	jmp	LBB5_3
Ltmp44:
LBB5_2:
	##DEBUG_VALUE: intersect:this <- [%RBP+-104]
	##DEBUG_VALUE: intersect:r <- [%RBP+16]
	##DEBUG_VALUE: intersect:HitLocation <- [%RBP+-268]
	.loc	49 16 33                ## /Users/mdjasper/Sites/sandbox/graphics2/RayTracer/RayTracer/Plane.cpp:16:33
	movq	-416(%rbp), %rax        ## 8-byte Reload
	movl	8(%rax), %ecx
	movl	%ecx, -272(%rbp)
	movq	(%rax), %rdx
	movq	%rdx, -280(%rbp)
	.loc	49 16 38 is_stmt 0      ## /Users/mdjasper/Sites/sandbox/graphics2/RayTracer/RayTracer/Plane.cpp:16:38
	movq	-448(%rbp), %rdx        ## 8-byte Reload
	movl	28(%rdx), %ecx
	movl	%ecx, -288(%rbp)
	movq	20(%rdx), %rsi
	movq	%rsi, -296(%rbp)
	.loc	49 16 29                ## /Users/mdjasper/Sites/sandbox/graphics2/RayTracer/RayTracer/Plane.cpp:16:29
	movl	-272(%rbp), %ecx
	movl	%ecx, -304(%rbp)
	movq	-280(%rbp), %rsi
	movq	%rsi, -312(%rbp)
	movq	-312(%rbp), %xmm0       ## xmm0 = mem[0],zero
	movss	-304(%rbp), %xmm1       ## xmm1 = mem[0],zero,zero,zero
	movl	-288(%rbp), %ecx
	movl	%ecx, -320(%rbp)
	movq	-296(%rbp), %rsi
	movq	%rsi, -328(%rbp)
	movq	-328(%rbp), %xmm2       ## xmm2 = mem[0],zero
	movss	-320(%rbp), %xmm3       ## xmm3 = mem[0],zero,zero,zero
	callq	__Z3dotI5Point6VectorEfT_T0_
	.loc	49 16 47                ## /Users/mdjasper/Sites/sandbox/graphics2/RayTracer/RayTracer/Plane.cpp:16:47
	movq	-416(%rbp), %rax        ## 8-byte Reload
	movl	20(%rax), %ecx
	movl	%ecx, -336(%rbp)
	movq	12(%rax), %rdx
	movq	%rdx, -344(%rbp)
	.loc	49 16 52                ## /Users/mdjasper/Sites/sandbox/graphics2/RayTracer/RayTracer/Plane.cpp:16:52
	movq	-448(%rbp), %rdx        ## 8-byte Reload
	movl	28(%rdx), %ecx
	movl	%ecx, -352(%rbp)
	movq	20(%rdx), %rsi
	movq	%rsi, -360(%rbp)
	.loc	49 16 43                ## /Users/mdjasper/Sites/sandbox/graphics2/RayTracer/RayTracer/Plane.cpp:16:43
	movl	-336(%rbp), %ecx
	movl	%ecx, -368(%rbp)
	movq	-344(%rbp), %rsi
	movq	%rsi, -376(%rbp)
	movq	-376(%rbp), %xmm1       ## xmm1 = mem[0],zero
	movss	-368(%rbp), %xmm2       ## xmm2 = mem[0],zero,zero,zero
	movl	-352(%rbp), %ecx
	movl	%ecx, -384(%rbp)
	movq	-360(%rbp), %rsi
	movq	%rsi, -392(%rbp)
	movq	-392(%rbp), %xmm3       ## xmm3 = mem[0],zero
	movss	-384(%rbp), %xmm4       ## xmm4 = mem[0],zero,zero,zero
	movss	%xmm0, -452(%rbp)       ## 4-byte Spill
	movaps	%xmm1, %xmm0
	movaps	%xmm2, %xmm1
	movaps	%xmm3, %xmm2
	movaps	%xmm4, %xmm3
	callq	__Z3dotI6VectorS0_EfT_T0_
	leaq	-268(%rbp), %rsi
	leaq	-408(%rbp), %rdx
	.loc	49 16 41                ## /Users/mdjasper/Sites/sandbox/graphics2/RayTracer/RayTracer/Plane.cpp:16:41
	movss	-452(%rbp), %xmm1       ## 4-byte Reload
                                        ## xmm1 = mem[0],zero,zero,zero
	divss	%xmm0, %xmm1
	.loc	49 16 26                ## /Users/mdjasper/Sites/sandbox/graphics2/RayTracer/RayTracer/Plane.cpp:16:26
	movd	%xmm1, %ecx
	xorl	$2147483648, %ecx       ## imm = 0x80000000
	movd	%ecx, %xmm0
	.loc	49 16 11                ## /Users/mdjasper/Sites/sandbox/graphics2/RayTracer/RayTracer/Plane.cpp:16:11
	movss	%xmm0, -268(%rbp)
Ltmp45:
	##DEBUG_VALUE: intersect:HitLocationNormal <- %RDX
	.loc	49 17 32 is_stmt 1      ## /Users/mdjasper/Sites/sandbox/graphics2/RayTracer/RayTracer/Plane.cpp:17:32
	movq	-448(%rbp), %rax        ## 8-byte Reload
	movq	20(%rax), %rdi
	movq	%rdi, -408(%rbp)
	movl	28(%rax), %ecx
	movl	%ecx, -400(%rbp)
	.loc	49 18 12                ## /Users/mdjasper/Sites/sandbox/graphics2/RayTracer/RayTracer/Plane.cpp:18:12
	movq	-440(%rbp), %rdi        ## 8-byte Reload
	callq	__Z11make_uniqueI9HitRecordJRfR6VectorEENSt3__110unique_ptrIT_NS4_14default_deleteIS6_EEEEDpOT0_
Ltmp46:
LBB5_3:
	##DEBUG_VALUE: intersect:this <- [%RBP+-104]
	##DEBUG_VALUE: intersect:r <- [%RBP+16]
	.loc	49 19 1                 ## /Users/mdjasper/Sites/sandbox/graphics2/RayTracer/RayTracer/Plane.cpp:19:1
	movq	-432(%rbp), %rax        ## 8-byte Reload
	addq	$464, %rsp              ## imm = 0x1D0
	popq	%rbp
	retq
Ltmp47:
Lfunc_end5:
	.cfi_endproc

	.globl	__ZmII5PointET_S1_S1_
	.weak_def_can_be_hidden	__ZmII5PointET_S1_S1_
	.align	4, 0x90
__ZmII5PointET_S1_S1_:                  ## @_ZmII5PointET_S1_S1_
Lfunc_begin6:
	.loc	16 50 0                 ## /Users/mdjasper/Sites/sandbox/graphics2/RayTracer/RayTracer/Geometry.hpp:50:0
	.cfi_startproc
## BB#0:
	pushq	%rbp
Ltmp48:
	.cfi_def_cfa_offset 16
Ltmp49:
	.cfi_offset %rbp, -16
	movq	%rsp, %rbp
Ltmp50:
	.cfi_def_cfa_register %rbp
	##DEBUG_VALUE: operator-=<Point>:a <- [%RBP+-32]
	##DEBUG_VALUE: operator-=<Point>:b <- [%RBP+-64]
	movlps	%xmm0, -48(%rbp)
	movss	%xmm1, -40(%rbp)
	movl	-40(%rbp), %eax
	movl	%eax, -24(%rbp)
	movq	-48(%rbp), %rcx
	movq	%rcx, -32(%rbp)
	movlps	%xmm2, -80(%rbp)
	movss	%xmm3, -72(%rbp)
	movl	-72(%rbp), %eax
	movl	%eax, -56(%rbp)
	movq	-80(%rbp), %rcx
	movq	%rcx, -64(%rbp)
	.loc	16 51 14 prologue_end   ## /Users/mdjasper/Sites/sandbox/graphics2/RayTracer/RayTracer/Geometry.hpp:51:14
Ltmp51:
	movss	-32(%rbp), %xmm0        ## xmm0 = mem[0],zero,zero,zero
	.loc	16 51 20 is_stmt 0      ## /Users/mdjasper/Sites/sandbox/graphics2/RayTracer/RayTracer/Geometry.hpp:51:20
	movss	-64(%rbp), %xmm1        ## xmm1 = mem[0],zero,zero,zero
	.loc	16 51 16                ## /Users/mdjasper/Sites/sandbox/graphics2/RayTracer/RayTracer/Geometry.hpp:51:16
	subss	%xmm1, %xmm0
	.loc	16 51 10                ## /Users/mdjasper/Sites/sandbox/graphics2/RayTracer/RayTracer/Geometry.hpp:51:10
	movss	%xmm0, -16(%rbp)
	.loc	16 51 25                ## /Users/mdjasper/Sites/sandbox/graphics2/RayTracer/RayTracer/Geometry.hpp:51:25
	movss	-28(%rbp), %xmm0        ## xmm0 = mem[0],zero,zero,zero
	.loc	16 51 31                ## /Users/mdjasper/Sites/sandbox/graphics2/RayTracer/RayTracer/Geometry.hpp:51:31
	movss	-60(%rbp), %xmm1        ## xmm1 = mem[0],zero,zero,zero
	.loc	16 51 27                ## /Users/mdjasper/Sites/sandbox/graphics2/RayTracer/RayTracer/Geometry.hpp:51:27
	subss	%xmm1, %xmm0
	.loc	16 51 10                ## /Users/mdjasper/Sites/sandbox/graphics2/RayTracer/RayTracer/Geometry.hpp:51:10
	movss	%xmm0, -12(%rbp)
	.loc	16 51 36                ## /Users/mdjasper/Sites/sandbox/graphics2/RayTracer/RayTracer/Geometry.hpp:51:36
	movss	-24(%rbp), %xmm0        ## xmm0 = mem[0],zero,zero,zero
	.loc	16 51 42                ## /Users/mdjasper/Sites/sandbox/graphics2/RayTracer/RayTracer/Geometry.hpp:51:42
	movss	-56(%rbp), %xmm1        ## xmm1 = mem[0],zero,zero,zero
	.loc	16 51 38                ## /Users/mdjasper/Sites/sandbox/graphics2/RayTracer/RayTracer/Geometry.hpp:51:38
	subss	%xmm1, %xmm0
	.loc	16 51 10                ## /Users/mdjasper/Sites/sandbox/graphics2/RayTracer/RayTracer/Geometry.hpp:51:10
	movss	%xmm0, -8(%rbp)
	.loc	16 51 2                 ## /Users/mdjasper/Sites/sandbox/graphics2/RayTracer/RayTracer/Geometry.hpp:51:2
	movl	-8(%rbp), %eax
	movl	%eax, -88(%rbp)
	movq	-16(%rbp), %rcx
	movq	%rcx, -96(%rbp)
	movq	-96(%rbp), %xmm0        ## xmm0 = mem[0],zero
	movss	-88(%rbp), %xmm1        ## xmm1 = mem[0],zero,zero,zero
	popq	%rbp
	retq
Ltmp52:
Lfunc_end6:
	.cfi_endproc

	.globl	__Z3dotI6VectorS0_EfT_T0_
	.weak_def_can_be_hidden	__Z3dotI6VectorS0_EfT_T0_
	.align	4, 0x90
__Z3dotI6VectorS0_EfT_T0_:              ## @_Z3dotI6VectorS0_EfT_T0_
Lfunc_begin7:
	.loc	16 20 0 is_stmt 1       ## /Users/mdjasper/Sites/sandbox/graphics2/RayTracer/RayTracer/Geometry.hpp:20:0
	.cfi_startproc
## BB#0:
	pushq	%rbp
Ltmp53:
	.cfi_def_cfa_offset 16
Ltmp54:
	.cfi_offset %rbp, -16
	movq	%rsp, %rbp
Ltmp55:
	.cfi_def_cfa_register %rbp
	movlps	%xmm0, -32(%rbp)
	movss	%xmm1, -24(%rbp)
	movl	-24(%rbp), %eax
	movl	%eax, -8(%rbp)
	movq	-32(%rbp), %rcx
	movq	%rcx, -16(%rbp)
	movlps	%xmm2, -64(%rbp)
	movss	%xmm3, -56(%rbp)
	movq	-64(%rbp), %rcx
	movq	%rcx, -48(%rbp)
	movl	-56(%rbp), %eax
	movl	%eax, -40(%rbp)
	.loc	16 21 11 prologue_end   ## /Users/mdjasper/Sites/sandbox/graphics2/RayTracer/RayTracer/Geometry.hpp:21:11
Ltmp56:
	movss	-16(%rbp), %xmm0        ## xmm0 = mem[0],zero,zero,zero
	.loc	16 21 12 is_stmt 0      ## /Users/mdjasper/Sites/sandbox/graphics2/RayTracer/RayTracer/Geometry.hpp:21:12
	mulss	-48(%rbp), %xmm0
	.loc	16 21 21                ## /Users/mdjasper/Sites/sandbox/graphics2/RayTracer/RayTracer/Geometry.hpp:21:21
	movss	-12(%rbp), %xmm1        ## xmm1 = mem[0],zero,zero,zero
	.loc	16 21 22                ## /Users/mdjasper/Sites/sandbox/graphics2/RayTracer/RayTracer/Geometry.hpp:21:22
	mulss	-44(%rbp), %xmm1
	.loc	16 21 17                ## /Users/mdjasper/Sites/sandbox/graphics2/RayTracer/RayTracer/Geometry.hpp:21:17
	addss	%xmm1, %xmm0
	.loc	16 21 31                ## /Users/mdjasper/Sites/sandbox/graphics2/RayTracer/RayTracer/Geometry.hpp:21:31
	movss	-8(%rbp), %xmm1         ## xmm1 = mem[0],zero,zero,zero
	.loc	16 21 32                ## /Users/mdjasper/Sites/sandbox/graphics2/RayTracer/RayTracer/Geometry.hpp:21:32
	mulss	-40(%rbp), %xmm1
	.loc	16 21 27                ## /Users/mdjasper/Sites/sandbox/graphics2/RayTracer/RayTracer/Geometry.hpp:21:27
	addss	%xmm1, %xmm0
	.loc	16 21 2                 ## /Users/mdjasper/Sites/sandbox/graphics2/RayTracer/RayTracer/Geometry.hpp:21:2
	popq	%rbp
	retq
Ltmp57:
Lfunc_end7:
	.cfi_endproc

	.globl	__Z3dotI5Point6VectorEfT_T0_
	.weak_def_can_be_hidden	__Z3dotI5Point6VectorEfT_T0_
	.align	4, 0x90
__Z3dotI5Point6VectorEfT_T0_:           ## @_Z3dotI5Point6VectorEfT_T0_
Lfunc_begin8:
	.loc	16 20 0 is_stmt 1       ## /Users/mdjasper/Sites/sandbox/graphics2/RayTracer/RayTracer/Geometry.hpp:20:0
	.cfi_startproc
## BB#0:
	pushq	%rbp
Ltmp58:
	.cfi_def_cfa_offset 16
Ltmp59:
	.cfi_offset %rbp, -16
	movq	%rsp, %rbp
Ltmp60:
	.cfi_def_cfa_register %rbp
	movlps	%xmm0, -32(%rbp)
	movss	%xmm1, -24(%rbp)
	movl	-24(%rbp), %eax
	movl	%eax, -8(%rbp)
	movq	-32(%rbp), %rcx
	movq	%rcx, -16(%rbp)
	movlps	%xmm2, -64(%rbp)
	movss	%xmm3, -56(%rbp)
	movq	-64(%rbp), %rcx
	movq	%rcx, -48(%rbp)
	movl	-56(%rbp), %eax
	movl	%eax, -40(%rbp)
	.loc	16 21 11 prologue_end   ## /Users/mdjasper/Sites/sandbox/graphics2/RayTracer/RayTracer/Geometry.hpp:21:11
Ltmp61:
	movss	-16(%rbp), %xmm0        ## xmm0 = mem[0],zero,zero,zero
	.loc	16 21 12 is_stmt 0      ## /Users/mdjasper/Sites/sandbox/graphics2/RayTracer/RayTracer/Geometry.hpp:21:12
	mulss	-48(%rbp), %xmm0
	.loc	16 21 21                ## /Users/mdjasper/Sites/sandbox/graphics2/RayTracer/RayTracer/Geometry.hpp:21:21
	movss	-12(%rbp), %xmm1        ## xmm1 = mem[0],zero,zero,zero
	.loc	16 21 22                ## /Users/mdjasper/Sites/sandbox/graphics2/RayTracer/RayTracer/Geometry.hpp:21:22
	mulss	-44(%rbp), %xmm1
	.loc	16 21 17                ## /Users/mdjasper/Sites/sandbox/graphics2/RayTracer/RayTracer/Geometry.hpp:21:17
	addss	%xmm1, %xmm0
	.loc	16 21 31                ## /Users/mdjasper/Sites/sandbox/graphics2/RayTracer/RayTracer/Geometry.hpp:21:31
	movss	-8(%rbp), %xmm1         ## xmm1 = mem[0],zero,zero,zero
	.loc	16 21 32                ## /Users/mdjasper/Sites/sandbox/graphics2/RayTracer/RayTracer/Geometry.hpp:21:32
	mulss	-40(%rbp), %xmm1
	.loc	16 21 27                ## /Users/mdjasper/Sites/sandbox/graphics2/RayTracer/RayTracer/Geometry.hpp:21:27
	addss	%xmm1, %xmm0
	.loc	16 21 2                 ## /Users/mdjasper/Sites/sandbox/graphics2/RayTracer/RayTracer/Geometry.hpp:21:2
	popq	%rbp
	retq
Ltmp62:
Lfunc_end8:
	.cfi_endproc

	.globl	__Z11make_uniqueI9HitRecordJRfR6VectorEENSt3__110unique_ptrIT_NS4_14default_deleteIS6_EEEEDpOT0_
	.weak_def_can_be_hidden	__Z11make_uniqueI9HitRecordJRfR6VectorEENSt3__110unique_ptrIT_NS4_14default_deleteIS6_EEEEDpOT0_
	.align	4, 0x90
__Z11make_uniqueI9HitRecordJRfR6VectorEENSt3__110unique_ptrIT_NS4_14default_deleteIS6_EEEEDpOT0_: ## @_Z11make_uniqueI9HitRecordJRfR6VectorEENSt3__110unique_ptrIT_NS4_14default_deleteIS6_EEEEDpOT0_
Lfunc_begin9:
	.file	53 "/Users/mdjasper/Sites/sandbox/graphics2/RayTracer/RayTracer" "utils.h"
	.loc	53 14 0 is_stmt 1       ## /Users/mdjasper/Sites/sandbox/graphics2/RayTracer/RayTracer/utils.h:14:0
	.cfi_startproc
	.cfi_personality 155, ___gxx_personality_v0
	.cfi_lsda 16, Lexception1
## BB#0:
	pushq	%rbp
Ltmp66:
	.cfi_def_cfa_offset 16
Ltmp67:
	.cfi_offset %rbp, -16
	movq	%rsp, %rbp
Ltmp68:
	.cfi_def_cfa_register %rbp
	subq	$224, %rsp
	movq	%rdi, %rax
	##DEBUG_VALUE: make_unique<HitRecord, float &, Vector &>:args <- [%RBP+-128]
	##DEBUG_VALUE: make_unique<HitRecord, float &, Vector &>:args <- [%RBP+-136]
	movq	%rsi, -128(%rbp)
	movq	%rdx, -136(%rbp)
	.loc	53 15 31 prologue_end   ## /Users/mdjasper/Sites/sandbox/graphics2/RayTracer/RayTracer/utils.h:15:31
Ltmp69:
	movl	$28, %ecx
	movl	%ecx, %edx
	movq	%rdi, -192(%rbp)        ## 8-byte Spill
	movq	%rdx, %rdi
	movq	%rax, -200(%rbp)        ## 8-byte Spill
	callq	__Znwm
	movq	%rax, %rdx
	movq	%rax, %rsi
	.loc	53 15 56 is_stmt 0      ## /Users/mdjasper/Sites/sandbox/graphics2/RayTracer/RayTracer/utils.h:15:56
	movq	-128(%rbp), %rdi
	.loc	53 15 37                ## /Users/mdjasper/Sites/sandbox/graphics2/RayTracer/RayTracer/utils.h:15:37
	movq	%rdi, -120(%rbp)
	movss	(%rdi), %xmm0           ## xmm0 = mem[0],zero,zero,zero
	.loc	53 15 56                ## /Users/mdjasper/Sites/sandbox/graphics2/RayTracer/RayTracer/utils.h:15:56
	movq	-136(%rbp), %rdi
	.loc	53 15 37                ## /Users/mdjasper/Sites/sandbox/graphics2/RayTracer/RayTracer/utils.h:15:37
	movq	%rdi, -8(%rbp)
	movl	8(%rdi), %ecx
	movl	%ecx, -144(%rbp)
	movq	(%rdi), %rdi
	movq	%rdi, -152(%rbp)
	.loc	53 15 35                ## /Users/mdjasper/Sites/sandbox/graphics2/RayTracer/RayTracer/utils.h:15:35
	movl	-144(%rbp), %ecx
	movl	%ecx, -160(%rbp)
	movq	-152(%rbp), %rdi
	movq	%rdi, -168(%rbp)
	movq	-168(%rbp), %xmm1       ## xmm1 = mem[0],zero
	movss	-160(%rbp), %xmm2       ## xmm2 = mem[0],zero,zero,zero
Ltmp63:
	movq	%rax, %rdi
	movq	%rsi, -208(%rbp)        ## 8-byte Spill
	movq	%rdx, -216(%rbp)        ## 8-byte Spill
	callq	__ZN9HitRecordC1Ef6Vector
Ltmp64:
	jmp	LBB9_1
LBB9_1:
	##DEBUG_VALUE: make_unique<HitRecord, float &, Vector &>:args <- [%RBP+-136]
	##DEBUG_VALUE: make_unique<HitRecord, float &, Vector &>:args <- [%RBP+-128]
	leaq	-32(%rbp), %rax
	leaq	-56(%rbp), %rcx
	leaq	-96(%rbp), %rdx
	.loc	53 15 12                ## /Users/mdjasper/Sites/sandbox/graphics2/RayTracer/RayTracer/utils.h:15:12
	movq	-192(%rbp), %rsi        ## 8-byte Reload
	movq	%rsi, -104(%rbp)
	movq	-208(%rbp), %rdi        ## 8-byte Reload
	movq	%rdi, -112(%rbp)
	movq	-104(%rbp), %r8
	.loc	7 2590 9 is_stmt 1      ## /Applications/Xcode.app/Contents/Developer/Toolchains/XcodeDefault.xctoolchain/usr/bin/../include/c++/v1/memory:2590:9
Ltmp70:
	movq	-112(%rbp), %r9
	movq	%r8, -88(%rbp)
	movq	%r9, -96(%rbp)
	movq	-88(%rbp), %r8
	.loc	7 2589 18               ## /Applications/Xcode.app/Contents/Developer/Toolchains/XcodeDefault.xctoolchain/usr/bin/../include/c++/v1/memory:2589:18
Ltmp71:
	movq	%rdx, -80(%rbp)
	.loc	8 1669 31               ## /Applications/Xcode.app/Contents/Developer/Toolchains/XcodeDefault.xctoolchain/usr/bin/../include/c++/v1/type_traits:1669:31
Ltmp72:
	movq	-80(%rbp), %rdx
Ltmp73:
	.loc	7 2589 18               ## /Applications/Xcode.app/Contents/Developer/Toolchains/XcodeDefault.xctoolchain/usr/bin/../include/c++/v1/memory:2589:18
	movq	(%rdx), %rdx
	.loc	7 2589 11 is_stmt 0     ## /Applications/Xcode.app/Contents/Developer/Toolchains/XcodeDefault.xctoolchain/usr/bin/../include/c++/v1/memory:2589:11
	movq	%r8, -64(%rbp)
	movq	%rdx, -72(%rbp)
	movq	-64(%rbp), %rdx
	.loc	7 2411 49 is_stmt 1     ## /Applications/Xcode.app/Contents/Developer/Toolchains/XcodeDefault.xctoolchain/usr/bin/../include/c++/v1/memory:2411:49
Ltmp74:
	movq	-72(%rbp), %r8
	movq	%rdx, -48(%rbp)
	movq	%r8, -56(%rbp)
	movq	-48(%rbp), %rdx
	.loc	7 2411 16 is_stmt 0     ## /Applications/Xcode.app/Contents/Developer/Toolchains/XcodeDefault.xctoolchain/usr/bin/../include/c++/v1/memory:2411:16
Ltmp75:
	movq	%rcx, -40(%rbp)
	.loc	8 1677 31 is_stmt 1     ## /Applications/Xcode.app/Contents/Developer/Toolchains/XcodeDefault.xctoolchain/usr/bin/../include/c++/v1/type_traits:1677:31
Ltmp76:
	movq	-40(%rbp), %rcx
Ltmp77:
	.loc	7 2411 16               ## /Applications/Xcode.app/Contents/Developer/Toolchains/XcodeDefault.xctoolchain/usr/bin/../include/c++/v1/memory:2411:16
	movq	(%rcx), %rcx
	.loc	7 2411 11 is_stmt 0     ## /Applications/Xcode.app/Contents/Developer/Toolchains/XcodeDefault.xctoolchain/usr/bin/../include/c++/v1/memory:2411:11
	movq	%rdx, -24(%rbp)
	movq	%rcx, -32(%rbp)
	movq	-24(%rbp), %rcx
	.loc	7 2232 20 is_stmt 1     ## /Applications/Xcode.app/Contents/Developer/Toolchains/XcodeDefault.xctoolchain/usr/bin/../include/c++/v1/memory:2232:20
Ltmp78:
	movq	%rax, -16(%rbp)
	.loc	8 1677 31               ## /Applications/Xcode.app/Contents/Developer/Toolchains/XcodeDefault.xctoolchain/usr/bin/../include/c++/v1/type_traits:1677:31
Ltmp79:
	movq	-16(%rbp), %rax
Ltmp80:
	.loc	7 2232 20               ## /Applications/Xcode.app/Contents/Developer/Toolchains/XcodeDefault.xctoolchain/usr/bin/../include/c++/v1/memory:2232:20
	movq	(%rax), %rax
	.loc	7 2232 11 is_stmt 0     ## /Applications/Xcode.app/Contents/Developer/Toolchains/XcodeDefault.xctoolchain/usr/bin/../include/c++/v1/memory:2232:11
	movq	%rax, (%rcx)
Ltmp81:
	.loc	53 15 5 is_stmt 1       ## /Users/mdjasper/Sites/sandbox/graphics2/RayTracer/RayTracer/utils.h:15:5
	movq	-200(%rbp), %rax        ## 8-byte Reload
	addq	$224, %rsp
	popq	%rbp
	retq
LBB9_2:
	##DEBUG_VALUE: make_unique<HitRecord, float &, Vector &>:args <- [%RBP+-136]
	##DEBUG_VALUE: make_unique<HitRecord, float &, Vector &>:args <- [%RBP+-128]
Ltmp65:
	.loc	53 16 1                 ## /Users/mdjasper/Sites/sandbox/graphics2/RayTracer/RayTracer/utils.h:16:1
	movl	%edx, %ecx
	movq	%rax, -176(%rbp)
	movl	%ecx, -180(%rbp)
	.loc	53 15 31                ## /Users/mdjasper/Sites/sandbox/graphics2/RayTracer/RayTracer/utils.h:15:31
	movq	-216(%rbp), %rdi        ## 8-byte Reload
	callq	__ZdlPv
## BB#3:
	##DEBUG_VALUE: make_unique<HitRecord, float &, Vector &>:args <- [%RBP+-136]
	##DEBUG_VALUE: make_unique<HitRecord, float &, Vector &>:args <- [%RBP+-128]
	movq	-176(%rbp), %rdi
	callq	__Unwind_Resume
Ltmp82:
Lfunc_end9:
	.cfi_endproc
	.section	__TEXT,__gcc_except_tab
	.align	2
GCC_except_table9:
Lexception1:
	.byte	255                     ## @LPStart Encoding = omit
	.byte	155                     ## @TType Encoding = indirect pcrel sdata4
	.byte	41                      ## @TType base offset
	.byte	3                       ## Call site Encoding = udata4
	.byte	39                      ## Call site table length
Lset3 = Lfunc_begin9-Lfunc_begin9       ## >> Call Site 1 <<
	.long	Lset3
Lset4 = Ltmp63-Lfunc_begin9             ##   Call between Lfunc_begin9 and Ltmp63
	.long	Lset4
	.long	0                       ##     has no landing pad
	.byte	0                       ##   On action: cleanup
Lset5 = Ltmp63-Lfunc_begin9             ## >> Call Site 2 <<
	.long	Lset5
Lset6 = Ltmp64-Ltmp63                   ##   Call between Ltmp63 and Ltmp64
	.long	Lset6
Lset7 = Ltmp65-Lfunc_begin9             ##     jumps to Ltmp65
	.long	Lset7
	.byte	0                       ##   On action: cleanup
Lset8 = Ltmp64-Lfunc_begin9             ## >> Call Site 3 <<
	.long	Lset8
Lset9 = Lfunc_end9-Ltmp64               ##   Call between Ltmp64 and Lfunc_end9
	.long	Lset9
	.long	0                       ##     has no landing pad
	.byte	0                       ##   On action: cleanup
	.align	2

	.section	__TEXT,__text,regular,pure_instructions
	.globl	__ZNK5Plane10intersectPE3Ray
	.align	4, 0x90
__ZNK5Plane10intersectPE3Ray:           ## @_ZNK5Plane10intersectPE3Ray
Lfunc_begin10:
	.loc	49 21 0                 ## /Users/mdjasper/Sites/sandbox/graphics2/RayTracer/RayTracer/Plane.cpp:21:0
	.cfi_startproc
## BB#0:
	pushq	%rbp
Ltmp83:
	.cfi_def_cfa_offset 16
Ltmp84:
	.cfi_offset %rbp, -16
	movq	%rsp, %rbp
Ltmp85:
	.cfi_def_cfa_register %rbp
	movb	$1, %al
	movq	%rdi, -8(%rbp)
	##DEBUG_VALUE: intersectP:r <- [%RBP+16]
	.loc	49 22 5 prologue_end    ## /Users/mdjasper/Sites/sandbox/graphics2/RayTracer/RayTracer/Plane.cpp:22:5
Ltmp86:
	andb	$1, %al
	movzbl	%al, %eax
	popq	%rbp
	retq
Ltmp87:
Lfunc_end10:
	.cfi_endproc

	.globl	__ZNK5Plane14getBoundingBoxEv
	.align	4, 0x90
__ZNK5Plane14getBoundingBoxEv:          ## @_ZNK5Plane14getBoundingBoxEv
Lfunc_begin11:
	.loc	49 25 0                 ## /Users/mdjasper/Sites/sandbox/graphics2/RayTracer/RayTracer/Plane.cpp:25:0
	.cfi_startproc
## BB#0:
	pushq	%rbp
Ltmp88:
	.cfi_def_cfa_offset 16
Ltmp89:
	.cfi_offset %rbp, -16
	movq	%rsp, %rbp
Ltmp90:
	.cfi_def_cfa_register %rbp
	subq	$16, %rsp
	movq	%rdi, %rax
	movq	%rsi, -8(%rbp)
Ltmp91:
	##DEBUG_VALUE: getBoundingBox:box <- [%RDI+0]
	.loc	49 26 10 prologue_end   ## /Users/mdjasper/Sites/sandbox/graphics2/RayTracer/RayTracer/Plane.cpp:26:10
	movq	%rax, -16(%rbp)         ## 8-byte Spill
	callq	__ZN4BBoxC1Ev
Ltmp92:
	.loc	49 28 5                 ## /Users/mdjasper/Sites/sandbox/graphics2/RayTracer/RayTracer/Plane.cpp:28:5
	movq	-16(%rbp), %rax         ## 8-byte Reload
	addq	$16, %rsp
	popq	%rbp
	retq
Ltmp93:
Lfunc_end11:
	.cfi_endproc

	.private_extern	__ZN4BBoxC1Ev
	.globl	__ZN4BBoxC1Ev
	.weak_def_can_be_hidden	__ZN4BBoxC1Ev
	.align	4, 0x90
__ZN4BBoxC1Ev:                          ## @_ZN4BBoxC1Ev
Lfunc_begin12:
	.loc	50 16 0                 ## /Users/mdjasper/Sites/sandbox/graphics2/RayTracer/RayTracer/BBox.hpp:16:0
	.cfi_startproc
## BB#0:
	pushq	%rbp
Ltmp94:
	.cfi_def_cfa_offset 16
Ltmp95:
	.cfi_offset %rbp, -16
	movq	%rsp, %rbp
Ltmp96:
	.cfi_def_cfa_register %rbp
	subq	$16, %rsp
	movq	%rdi, -8(%rbp)
	movq	-8(%rbp), %rdi
	.loc	50 16 23 prologue_end   ## /Users/mdjasper/Sites/sandbox/graphics2/RayTracer/RayTracer/BBox.hpp:16:23
Ltmp97:
	callq	__ZN4BBoxC2Ev
	.loc	50 16 24 is_stmt 0      ## /Users/mdjasper/Sites/sandbox/graphics2/RayTracer/RayTracer/BBox.hpp:16:24
	addq	$16, %rsp
	popq	%rbp
	retq
Ltmp98:
Lfunc_end12:
	.cfi_endproc

	.private_extern	__ZN4BBoxC2Ev
	.globl	__ZN4BBoxC2Ev
	.weak_def_can_be_hidden	__ZN4BBoxC2Ev
	.align	4, 0x90
__ZN4BBoxC2Ev:                          ## @_ZN4BBoxC2Ev
Lfunc_begin13:
	.loc	50 16 0 is_stmt 1       ## /Users/mdjasper/Sites/sandbox/graphics2/RayTracer/RayTracer/BBox.hpp:16:0
	.cfi_startproc
## BB#0:
	pushq	%rbp
Ltmp99:
	.cfi_def_cfa_offset 16
Ltmp100:
	.cfi_offset %rbp, -16
	movq	%rsp, %rbp
Ltmp101:
	.cfi_def_cfa_register %rbp
	subq	$16, %rsp
	movq	%rdi, -8(%rbp)
	movq	-8(%rbp), %rdi
	.loc	50 16 10 prologue_end   ## /Users/mdjasper/Sites/sandbox/graphics2/RayTracer/RayTracer/BBox.hpp:16:10
Ltmp102:
	movq	%rdi, -16(%rbp)         ## 8-byte Spill
	callq	__ZN6ExtentC1Ev
	.loc	50 16 15 is_stmt 0      ## /Users/mdjasper/Sites/sandbox/graphics2/RayTracer/RayTracer/BBox.hpp:16:15
	movq	-16(%rbp), %rdi         ## 8-byte Reload
	addq	$8, %rdi
	callq	__ZN6ExtentC1Ev
	.loc	50 16 20                ## /Users/mdjasper/Sites/sandbox/graphics2/RayTracer/RayTracer/BBox.hpp:16:20
	movq	-16(%rbp), %rdi         ## 8-byte Reload
	addq	$16, %rdi
	callq	__ZN6ExtentC1Ev
	.loc	50 16 24                ## /Users/mdjasper/Sites/sandbox/graphics2/RayTracer/RayTracer/BBox.hpp:16:24
	addq	$16, %rsp
	popq	%rbp
	retq
Ltmp103:
Lfunc_end13:
	.cfi_endproc

	.private_extern	__ZN6ExtentC1Ev
	.globl	__ZN6ExtentC1Ev
	.weak_def_can_be_hidden	__ZN6ExtentC1Ev
	.align	4, 0x90
__ZN6ExtentC1Ev:                        ## @_ZN6ExtentC1Ev
Lfunc_begin14:
	.loc	50 10 0 is_stmt 1       ## /Users/mdjasper/Sites/sandbox/graphics2/RayTracer/RayTracer/BBox.hpp:10:0
	.cfi_startproc
## BB#0:
	pushq	%rbp
Ltmp104:
	.cfi_def_cfa_offset 16
Ltmp105:
	.cfi_offset %rbp, -16
	movq	%rsp, %rbp
Ltmp106:
	.cfi_def_cfa_register %rbp
	subq	$16, %rsp
	movq	%rdi, -8(%rbp)
	movq	-8(%rbp), %rdi
	.loc	50 10 90 prologue_end   ## /Users/mdjasper/Sites/sandbox/graphics2/RayTracer/RayTracer/BBox.hpp:10:90
Ltmp107:
	callq	__ZN6ExtentC2Ev
	.loc	50 10 91 is_stmt 0      ## /Users/mdjasper/Sites/sandbox/graphics2/RayTracer/RayTracer/BBox.hpp:10:91
	addq	$16, %rsp
	popq	%rbp
	retq
Ltmp108:
Lfunc_end14:
	.cfi_endproc

	.section	__TEXT,__literal4,4byte_literals
	.align	2
LCPI15_0:
	.long	8388608                 ## float 1.17549435E-38
LCPI15_1:
	.long	2139095039              ## float 3.40282347E+38
	.section	__TEXT,__text,regular,pure_instructions
	.private_extern	__ZN6ExtentC2Ev
	.globl	__ZN6ExtentC2Ev
	.weak_def_can_be_hidden	__ZN6ExtentC2Ev
	.align	4, 0x90
__ZN6ExtentC2Ev:                        ## @_ZN6ExtentC2Ev
Lfunc_begin15:
	.loc	50 10 0 is_stmt 1       ## /Users/mdjasper/Sites/sandbox/graphics2/RayTracer/RayTracer/BBox.hpp:10:0
	.cfi_startproc
## BB#0:
	pushq	%rbp
Ltmp109:
	.cfi_def_cfa_offset 16
Ltmp110:
	.cfi_offset %rbp, -16
	movq	%rsp, %rbp
Ltmp111:
	.cfi_def_cfa_register %rbp
	movss	LCPI15_0(%rip), %xmm0   ## xmm0 = mem[0],zero,zero,zero
	movss	LCPI15_1(%rip), %xmm1   ## xmm1 = mem[0],zero,zero,zero
	movq	%rdi, -8(%rbp)
	movq	-8(%rbp), %rdi
	.loc	50 10 12 prologue_end   ## /Users/mdjasper/Sites/sandbox/graphics2/RayTracer/RayTracer/BBox.hpp:10:12
Ltmp112:
	movss	%xmm1, (%rdi)
	.loc	50 10 52 is_stmt 0      ## /Users/mdjasper/Sites/sandbox/graphics2/RayTracer/RayTracer/BBox.hpp:10:52
	movss	%xmm0, 4(%rdi)
	.loc	50 10 91                ## /Users/mdjasper/Sites/sandbox/graphics2/RayTracer/RayTracer/BBox.hpp:10:91
	popq	%rbp
	retq
Ltmp113:
Lfunc_end15:
	.cfi_endproc

	.globl	__ZNSt3__124__put_character_sequenceIcNS_11char_traitsIcEEEERNS_13basic_ostreamIT_T0_EES7_PKS4_m
	.weak_def_can_be_hidden	__ZNSt3__124__put_character_sequenceIcNS_11char_traitsIcEEEERNS_13basic_ostreamIT_T0_EES7_PKS4_m
	.align	4, 0x90
__ZNSt3__124__put_character_sequenceIcNS_11char_traitsIcEEEERNS_13basic_ostreamIT_T0_EES7_PKS4_m: ## @_ZNSt3__124__put_character_sequenceIcNS_11char_traitsIcEEEERNS_13basic_ostreamIT_T0_EES7_PKS4_m
Lfunc_begin16:
	.loc	15 746 0 is_stmt 1      ## /Applications/Xcode.app/Contents/Developer/Toolchains/XcodeDefault.xctoolchain/usr/bin/../include/c++/v1/ostream:746:0
	.cfi_startproc
	.cfi_personality 155, ___gxx_personality_v0
	.cfi_lsda 16, Lexception2
## BB#0:
	pushq	%rbp
Ltmp135:
	.cfi_def_cfa_offset 16
Ltmp136:
	.cfi_offset %rbp, -16
	movq	%rsp, %rbp
Ltmp137:
	.cfi_def_cfa_register %rbp
	subq	$384, %rsp              ## imm = 0x180
	##DEBUG_VALUE: __put_character_sequence<char, std::__1::char_traits<char> >:__os <- [%RBP+-184]
	##DEBUG_VALUE: __put_character_sequence<char, std::__1::char_traits<char> >:__str <- [%RBP+-192]
	##DEBUG_VALUE: __put_character_sequence<char, std::__1::char_traits<char> >:__len <- [%RBP+-200]
	movq	%rdi, -184(%rbp)
	movq	%rsi, -192(%rbp)
	movq	%rdx, -200(%rbp)
	.loc	15 751 61 prologue_end  ## /Applications/Xcode.app/Contents/Developer/Toolchains/XcodeDefault.xctoolchain/usr/bin/../include/c++/v1/ostream:751:61
Ltmp138:
	movq	-184(%rbp), %rsi
	.loc	15 751 57 is_stmt 0     ## /Applications/Xcode.app/Contents/Developer/Toolchains/XcodeDefault.xctoolchain/usr/bin/../include/c++/v1/ostream:751:57
Ltmp114:
	leaq	-216(%rbp), %rdi
	callq	__ZNSt3__113basic_ostreamIcNS_11char_traitsIcEEE6sentryC1ERS3_
Ltmp115:
	jmp	LBB16_1
LBB16_1:
	##DEBUG_VALUE: __put_character_sequence<char, std::__1::char_traits<char> >:__len <- [%RBP+-200]
	##DEBUG_VALUE: __put_character_sequence<char, std::__1::char_traits<char> >:__str <- [%RBP+-192]
	##DEBUG_VALUE: __put_character_sequence<char, std::__1::char_traits<char> >:__os <- [%RBP+-184]
	leaq	-216(%rbp), %rax
	.loc	15 752 13 is_stmt 1     ## /Applications/Xcode.app/Contents/Developer/Toolchains/XcodeDefault.xctoolchain/usr/bin/../include/c++/v1/ostream:752:13
Ltmp139:
	movq	%rax, -176(%rbp)
	movq	-176(%rbp), %rax
	.loc	15 240 39               ## /Applications/Xcode.app/Contents/Developer/Toolchains/XcodeDefault.xctoolchain/usr/bin/../include/c++/v1/ostream:240:39
Ltmp140:
	movb	(%rax), %cl
	movb	%cl, -249(%rbp)         ## 1-byte Spill
Ltmp141:
## BB#2:
	##DEBUG_VALUE: __put_character_sequence<char, std::__1::char_traits<char> >:__len <- [%RBP+-200]
	##DEBUG_VALUE: __put_character_sequence<char, std::__1::char_traits<char> >:__str <- [%RBP+-192]
	##DEBUG_VALUE: __put_character_sequence<char, std::__1::char_traits<char> >:__os <- [%RBP+-184]
	.loc	15 752 13               ## /Applications/Xcode.app/Contents/Developer/Toolchains/XcodeDefault.xctoolchain/usr/bin/../include/c++/v1/ostream:752:13
	movb	-249(%rbp), %al         ## 1-byte Reload
	testb	$1, %al
	jne	LBB16_3
	jmp	LBB16_26
LBB16_3:
	##DEBUG_VALUE: __put_character_sequence<char, std::__1::char_traits<char> >:__len <- [%RBP+-200]
	##DEBUG_VALUE: __put_character_sequence<char, std::__1::char_traits<char> >:__str <- [%RBP+-192]
	##DEBUG_VALUE: __put_character_sequence<char, std::__1::char_traits<char> >:__os <- [%RBP+-184]
	leaq	-240(%rbp), %rax
	.loc	15 755 38               ## /Applications/Xcode.app/Contents/Developer/Toolchains/XcodeDefault.xctoolchain/usr/bin/../include/c++/v1/ostream:755:38
Ltmp142:
	movq	-184(%rbp), %rcx
	.loc	15 755 34 is_stmt 0     ## /Applications/Xcode.app/Contents/Developer/Toolchains/XcodeDefault.xctoolchain/usr/bin/../include/c++/v1/ostream:755:34
	movq	%rax, -160(%rbp)
	movq	%rcx, -168(%rbp)
	movq	-160(%rbp), %rax
	.loc	13 908 32 is_stmt 1     ## /Applications/Xcode.app/Contents/Developer/Toolchains/XcodeDefault.xctoolchain/usr/bin/../include/c++/v1/iterator:908:32
Ltmp143:
	movq	-168(%rbp), %rcx
	movq	%rax, -144(%rbp)
	movq	%rcx, -152(%rbp)
	movq	-144(%rbp), %rax
	.loc	13 908 19 is_stmt 0     ## /Applications/Xcode.app/Contents/Developer/Toolchains/XcodeDefault.xctoolchain/usr/bin/../include/c++/v1/iterator:908:19
Ltmp144:
	movq	-152(%rbp), %rcx
	movq	(%rcx), %rdx
	movq	-24(%rdx), %rdx
	addq	%rdx, %rcx
	movq	%rcx, -136(%rbp)
	movq	-136(%rbp), %rcx
	.loc	3 696 66 is_stmt 1      ## /Applications/Xcode.app/Contents/Developer/Toolchains/XcodeDefault.xctoolchain/usr/bin/../include/c++/v1/ios:696:66
Ltmp145:
	movq	%rcx, -128(%rbp)
	movq	-128(%rbp), %rcx
	.loc	3 337 55                ## /Applications/Xcode.app/Contents/Developer/Toolchains/XcodeDefault.xctoolchain/usr/bin/../include/c++/v1/ios:337:55
Ltmp146:
	movq	40(%rcx), %rcx
Ltmp147:
	.loc	13 908 11               ## /Applications/Xcode.app/Contents/Developer/Toolchains/XcodeDefault.xctoolchain/usr/bin/../include/c++/v1/iterator:908:11
	movq	%rcx, (%rax)
Ltmp148:
	.loc	15 756 34               ## /Applications/Xcode.app/Contents/Developer/Toolchains/XcodeDefault.xctoolchain/usr/bin/../include/c++/v1/ostream:756:34
	movq	-192(%rbp), %rsi
	.loc	15 757 35               ## /Applications/Xcode.app/Contents/Developer/Toolchains/XcodeDefault.xctoolchain/usr/bin/../include/c++/v1/ostream:757:35
	movq	-184(%rbp), %rax
	movq	(%rax), %rcx
	movq	-24(%rcx), %rcx
	addq	%rcx, %rax
	movq	%rax, -88(%rbp)
	movq	-88(%rbp), %rax
	.loc	3 437 12                ## /Applications/Xcode.app/Contents/Developer/Toolchains/XcodeDefault.xctoolchain/usr/bin/../include/c++/v1/ios:437:12
Ltmp149:
	movl	8(%rax), %edi
	movq	%rsi, -264(%rbp)        ## 8-byte Spill
	movl	%edi, -268(%rbp)        ## 4-byte Spill
Ltmp150:
## BB#4:
	##DEBUG_VALUE: __put_character_sequence<char, std::__1::char_traits<char> >:__len <- [%RBP+-200]
	##DEBUG_VALUE: __put_character_sequence<char, std::__1::char_traits<char> >:__str <- [%RBP+-192]
	##DEBUG_VALUE: __put_character_sequence<char, std::__1::char_traits<char> >:__os <- [%RBP+-184]
	.loc	15 757 48               ## /Applications/Xcode.app/Contents/Developer/Toolchains/XcodeDefault.xctoolchain/usr/bin/../include/c++/v1/ostream:757:48
	movl	-268(%rbp), %eax        ## 4-byte Reload
	andl	$176, %eax
	.loc	15 757 73 is_stmt 0     ## /Applications/Xcode.app/Contents/Developer/Toolchains/XcodeDefault.xctoolchain/usr/bin/../include/c++/v1/ostream:757:73
	cmpl	$32, %eax
	.loc	15 757 34               ## /Applications/Xcode.app/Contents/Developer/Toolchains/XcodeDefault.xctoolchain/usr/bin/../include/c++/v1/ostream:757:34
	jne	LBB16_6
## BB#5:
	##DEBUG_VALUE: __put_character_sequence<char, std::__1::char_traits<char> >:__len <- [%RBP+-200]
	##DEBUG_VALUE: __put_character_sequence<char, std::__1::char_traits<char> >:__str <- [%RBP+-192]
	##DEBUG_VALUE: __put_character_sequence<char, std::__1::char_traits<char> >:__os <- [%RBP+-184]
	.loc	15 758 38 is_stmt 1     ## /Applications/Xcode.app/Contents/Developer/Toolchains/XcodeDefault.xctoolchain/usr/bin/../include/c++/v1/ostream:758:38
	movq	-192(%rbp), %rax
	.loc	15 758 44 is_stmt 0     ## /Applications/Xcode.app/Contents/Developer/Toolchains/XcodeDefault.xctoolchain/usr/bin/../include/c++/v1/ostream:758:44
	addq	-200(%rbp), %rax
	.loc	15 757 34 is_stmt 1     ## /Applications/Xcode.app/Contents/Developer/Toolchains/XcodeDefault.xctoolchain/usr/bin/../include/c++/v1/ostream:757:34
	movq	%rax, -280(%rbp)        ## 8-byte Spill
	jmp	LBB16_7
LBB16_6:
	##DEBUG_VALUE: __put_character_sequence<char, std::__1::char_traits<char> >:__len <- [%RBP+-200]
	##DEBUG_VALUE: __put_character_sequence<char, std::__1::char_traits<char> >:__str <- [%RBP+-192]
	##DEBUG_VALUE: __put_character_sequence<char, std::__1::char_traits<char> >:__os <- [%RBP+-184]
	.loc	15 759 38               ## /Applications/Xcode.app/Contents/Developer/Toolchains/XcodeDefault.xctoolchain/usr/bin/../include/c++/v1/ostream:759:38
	movq	-192(%rbp), %rax
	movq	%rax, -280(%rbp)        ## 8-byte Spill
LBB16_7:
	##DEBUG_VALUE: __put_character_sequence<char, std::__1::char_traits<char> >:__len <- [%RBP+-200]
	##DEBUG_VALUE: __put_character_sequence<char, std::__1::char_traits<char> >:__str <- [%RBP+-192]
	##DEBUG_VALUE: __put_character_sequence<char, std::__1::char_traits<char> >:__os <- [%RBP+-184]
	.loc	15 757 34               ## /Applications/Xcode.app/Contents/Developer/Toolchains/XcodeDefault.xctoolchain/usr/bin/../include/c++/v1/ostream:757:34
	movq	-280(%rbp), %rax        ## 8-byte Reload
	.loc	15 760 34               ## /Applications/Xcode.app/Contents/Developer/Toolchains/XcodeDefault.xctoolchain/usr/bin/../include/c++/v1/ostream:760:34
	movq	-192(%rbp), %rcx
	.loc	15 760 40 is_stmt 0     ## /Applications/Xcode.app/Contents/Developer/Toolchains/XcodeDefault.xctoolchain/usr/bin/../include/c++/v1/ostream:760:40
	addq	-200(%rbp), %rcx
	.loc	15 761 34 is_stmt 1     ## /Applications/Xcode.app/Contents/Developer/Toolchains/XcodeDefault.xctoolchain/usr/bin/../include/c++/v1/ostream:761:34
	movq	-184(%rbp), %rdx
	movq	(%rdx), %rsi
	movq	-24(%rsi), %rsi
	addq	%rsi, %rdx
	.loc	15 762 34               ## /Applications/Xcode.app/Contents/Developer/Toolchains/XcodeDefault.xctoolchain/usr/bin/../include/c++/v1/ostream:762:34
	movq	-184(%rbp), %rsi
	movq	(%rsi), %rdi
	movq	-24(%rdi), %rdi
	addq	%rdi, %rsi
	movq	%rsi, -72(%rbp)
	movq	-72(%rbp), %rsi
	.loc	3 742 34                ## /Applications/Xcode.app/Contents/Developer/Toolchains/XcodeDefault.xctoolchain/usr/bin/../include/c++/v1/ios:742:34
Ltmp151:
	movq	%rax, -288(%rbp)        ## 8-byte Spill
	movq	%rcx, -296(%rbp)        ## 8-byte Spill
	movq	%rdx, -304(%rbp)        ## 8-byte Spill
	movq	%rsi, -312(%rbp)        ## 8-byte Spill
	callq	__ZNSt3__111char_traitsIcE3eofEv
	.loc	3 742 54 is_stmt 0      ## /Applications/Xcode.app/Contents/Developer/Toolchains/XcodeDefault.xctoolchain/usr/bin/../include/c++/v1/ios:742:54
	movq	-312(%rbp), %rcx        ## 8-byte Reload
	movl	144(%rcx), %esi
	.loc	3 742 9                 ## /Applications/Xcode.app/Contents/Developer/Toolchains/XcodeDefault.xctoolchain/usr/bin/../include/c++/v1/ios:742:9
	movl	%eax, %edi
	callq	__ZNSt3__111char_traitsIcE11eq_int_typeEii
Ltmp152:
	.loc	3 742 9                 ## /Applications/Xcode.app/Contents/Developer/Toolchains/XcodeDefault.xctoolchain/usr/bin/../include/c++/v1/ios:742:9
	testb	$1, %al
	jne	LBB16_8
	jmp	LBB16_13
LBB16_8:
	##DEBUG_VALUE: __put_character_sequence<char, std::__1::char_traits<char> >:__len <- [%RBP+-200]
	##DEBUG_VALUE: __put_character_sequence<char, std::__1::char_traits<char> >:__str <- [%RBP+-192]
	##DEBUG_VALUE: __put_character_sequence<char, std::__1::char_traits<char> >:__os <- [%RBP+-184]
	.loc	3 743 19 is_stmt 1      ## /Applications/Xcode.app/Contents/Developer/Toolchains/XcodeDefault.xctoolchain/usr/bin/../include/c++/v1/ios:743:19
Ltmp153:
	movq	-312(%rbp), %rax        ## 8-byte Reload
	movq	%rax, -32(%rbp)
	movb	$32, -33(%rbp)
	movq	-32(%rbp), %rsi
	.loc	3 734 41                ## /Applications/Xcode.app/Contents/Developer/Toolchains/XcodeDefault.xctoolchain/usr/bin/../include/c++/v1/ios:734:41
Ltmp154:
Ltmp117:
	leaq	-48(%rbp), %rdi
	callq	__ZNKSt3__18ios_base6getlocEv
Ltmp118:
	jmp	LBB16_9
LBB16_9:
	##DEBUG_VALUE: __put_character_sequence<char, std::__1::char_traits<char> >:__len <- [%RBP+-200]
	##DEBUG_VALUE: __put_character_sequence<char, std::__1::char_traits<char> >:__str <- [%RBP+-192]
	##DEBUG_VALUE: __put_character_sequence<char, std::__1::char_traits<char> >:__os <- [%RBP+-184]
	leaq	-48(%rbp), %rax
	.loc	3 734 12 is_stmt 0      ## /Applications/Xcode.app/Contents/Developer/Toolchains/XcodeDefault.xctoolchain/usr/bin/../include/c++/v1/ios:734:12
	movq	%rax, -24(%rbp)
	.loc	5 187 40 is_stmt 1      ## /Applications/Xcode.app/Contents/Developer/Toolchains/XcodeDefault.xctoolchain/usr/bin/../include/c++/v1/__locale:187:40
Ltmp155:
Ltmp119:
	movq	__ZNSt3__15ctypeIcE2idE@GOTPCREL(%rip), %rsi
	movq	%rax, %rdi
	callq	__ZNKSt3__16locale9use_facetERNS0_2idE
Ltmp120:
	movq	%rax, -320(%rbp)        ## 8-byte Spill
	jmp	LBB16_10
Ltmp156:
LBB16_10:
	##DEBUG_VALUE: __put_character_sequence<char, std::__1::char_traits<char> >:__len <- [%RBP+-200]
	##DEBUG_VALUE: __put_character_sequence<char, std::__1::char_traits<char> >:__str <- [%RBP+-192]
	##DEBUG_VALUE: __put_character_sequence<char, std::__1::char_traits<char> >:__os <- [%RBP+-184]
	.loc	3 734 57                ## /Applications/Xcode.app/Contents/Developer/Toolchains/XcodeDefault.xctoolchain/usr/bin/../include/c++/v1/ios:734:57
	movb	-33(%rbp), %al
	.loc	3 734 12 is_stmt 0      ## /Applications/Xcode.app/Contents/Developer/Toolchains/XcodeDefault.xctoolchain/usr/bin/../include/c++/v1/ios:734:12
	movq	-320(%rbp), %rcx        ## 8-byte Reload
	movq	%rcx, -8(%rbp)
	movb	%al, -9(%rbp)
	movq	-8(%rbp), %rdx
	.loc	5 603 16 is_stmt 1      ## /Applications/Xcode.app/Contents/Developer/Toolchains/XcodeDefault.xctoolchain/usr/bin/../include/c++/v1/__locale:603:16
Ltmp157:
	movq	(%rdx), %rsi
	movq	56(%rsi), %rsi
	movsbl	-9(%rbp), %edi
Ltmp121:
	movl	%edi, -324(%rbp)        ## 4-byte Spill
	movq	%rdx, %rdi
	movl	-324(%rbp), %r8d        ## 4-byte Reload
	movq	%rsi, -336(%rbp)        ## 8-byte Spill
	movl	%r8d, %esi
	movq	-336(%rbp), %rdx        ## 8-byte Reload
	callq	*%rdx
Ltmp122:
	movb	%al, -337(%rbp)         ## 1-byte Spill
	jmp	LBB16_12
Ltmp158:
LBB16_11:
	##DEBUG_VALUE: __put_character_sequence<char, std::__1::char_traits<char> >:__len <- [%RBP+-200]
	##DEBUG_VALUE: __put_character_sequence<char, std::__1::char_traits<char> >:__str <- [%RBP+-192]
	##DEBUG_VALUE: __put_character_sequence<char, std::__1::char_traits<char> >:__os <- [%RBP+-184]
Ltmp123:
	.loc	3 735 1                 ## /Applications/Xcode.app/Contents/Developer/Toolchains/XcodeDefault.xctoolchain/usr/bin/../include/c++/v1/ios:735:1
	movl	%edx, %ecx
	movq	%rax, -56(%rbp)
	movl	%ecx, -60(%rbp)
	leaq	-48(%rbp), %rdi
	.loc	3 734 5                 ## /Applications/Xcode.app/Contents/Developer/Toolchains/XcodeDefault.xctoolchain/usr/bin/../include/c++/v1/ios:734:5
	callq	__ZNSt3__16localeD1Ev
	movq	-56(%rbp), %rax
	movl	-60(%rbp), %ecx
	movq	%rax, -352(%rbp)        ## 8-byte Spill
	movl	%ecx, -356(%rbp)        ## 4-byte Spill
	jmp	LBB16_21
LBB16_12:
	##DEBUG_VALUE: __put_character_sequence<char, std::__1::char_traits<char> >:__len <- [%RBP+-200]
	##DEBUG_VALUE: __put_character_sequence<char, std::__1::char_traits<char> >:__str <- [%RBP+-192]
	##DEBUG_VALUE: __put_character_sequence<char, std::__1::char_traits<char> >:__os <- [%RBP+-184]
	leaq	-48(%rbp), %rdi
	callq	__ZNSt3__16localeD1Ev
Ltmp159:
	.loc	3 743 19                ## /Applications/Xcode.app/Contents/Developer/Toolchains/XcodeDefault.xctoolchain/usr/bin/../include/c++/v1/ios:743:19
	movb	-337(%rbp), %al         ## 1-byte Reload
	movsbl	%al, %ecx
	.loc	3 743 17 is_stmt 0      ## /Applications/Xcode.app/Contents/Developer/Toolchains/XcodeDefault.xctoolchain/usr/bin/../include/c++/v1/ios:743:17
	movq	-312(%rbp), %rdi        ## 8-byte Reload
	movl	%ecx, 144(%rdi)
Ltmp160:
LBB16_13:
	##DEBUG_VALUE: __put_character_sequence<char, std::__1::char_traits<char> >:__len <- [%RBP+-200]
	##DEBUG_VALUE: __put_character_sequence<char, std::__1::char_traits<char> >:__str <- [%RBP+-192]
	##DEBUG_VALUE: __put_character_sequence<char, std::__1::char_traits<char> >:__os <- [%RBP+-184]
	.loc	3 744 12 is_stmt 1      ## /Applications/Xcode.app/Contents/Developer/Toolchains/XcodeDefault.xctoolchain/usr/bin/../include/c++/v1/ios:744:12
	movq	-312(%rbp), %rax        ## 8-byte Reload
	movl	144(%rax), %ecx
	movb	%cl, %dl
	movb	%dl, -357(%rbp)         ## 1-byte Spill
Ltmp161:
## BB#14:
	##DEBUG_VALUE: __put_character_sequence<char, std::__1::char_traits<char> >:__len <- [%RBP+-200]
	##DEBUG_VALUE: __put_character_sequence<char, std::__1::char_traits<char> >:__str <- [%RBP+-192]
	##DEBUG_VALUE: __put_character_sequence<char, std::__1::char_traits<char> >:__os <- [%RBP+-184]
	.loc	15 755 17               ## /Applications/Xcode.app/Contents/Developer/Toolchains/XcodeDefault.xctoolchain/usr/bin/../include/c++/v1/ostream:755:17
	movq	-240(%rbp), %rdi
Ltmp124:
	movb	-357(%rbp), %al         ## 1-byte Reload
	movsbl	%al, %r9d
	movq	-264(%rbp), %rsi        ## 8-byte Reload
	movq	-288(%rbp), %rdx        ## 8-byte Reload
	movq	-296(%rbp), %rcx        ## 8-byte Reload
	movq	-304(%rbp), %r8         ## 8-byte Reload
	callq	__ZNSt3__116__pad_and_outputIcNS_11char_traitsIcEEEENS_19ostreambuf_iteratorIT_T0_EES6_PKS4_S8_S8_RNS_8ios_baseES4_
Ltmp125:
	movq	%rax, -368(%rbp)        ## 8-byte Spill
	jmp	LBB16_15
LBB16_15:
	##DEBUG_VALUE: __put_character_sequence<char, std::__1::char_traits<char> >:__len <- [%RBP+-200]
	##DEBUG_VALUE: __put_character_sequence<char, std::__1::char_traits<char> >:__str <- [%RBP+-192]
	##DEBUG_VALUE: __put_character_sequence<char, std::__1::char_traits<char> >:__os <- [%RBP+-184]
	leaq	-248(%rbp), %rax
	movq	-368(%rbp), %rcx        ## 8-byte Reload
	movq	%rcx, -248(%rbp)
	movq	%rax, -80(%rbp)
	movq	-80(%rbp), %rax
	.loc	13 920 77               ## /Applications/Xcode.app/Contents/Developer/Toolchains/XcodeDefault.xctoolchain/usr/bin/../include/c++/v1/iterator:920:77
Ltmp162:
	cmpq	$0, (%rax)
Ltmp163:
	.loc	15 755 17               ## /Applications/Xcode.app/Contents/Developer/Toolchains/XcodeDefault.xctoolchain/usr/bin/../include/c++/v1/ostream:755:17
	jne	LBB16_25
## BB#16:
	##DEBUG_VALUE: __put_character_sequence<char, std::__1::char_traits<char> >:__len <- [%RBP+-200]
	##DEBUG_VALUE: __put_character_sequence<char, std::__1::char_traits<char> >:__str <- [%RBP+-192]
	##DEBUG_VALUE: __put_character_sequence<char, std::__1::char_traits<char> >:__os <- [%RBP+-184]
	.loc	15 763 17               ## /Applications/Xcode.app/Contents/Developer/Toolchains/XcodeDefault.xctoolchain/usr/bin/../include/c++/v1/ostream:763:17
Ltmp164:
	movq	-184(%rbp), %rax
	movq	(%rax), %rcx
	movq	-24(%rcx), %rcx
	addq	%rcx, %rax
	movq	%rax, -112(%rbp)
	movl	$5, -116(%rbp)
	movq	-112(%rbp), %rax
	.loc	3 589 59                ## /Applications/Xcode.app/Contents/Developer/Toolchains/XcodeDefault.xctoolchain/usr/bin/../include/c++/v1/ios:589:59
Ltmp165:
	movq	%rax, -96(%rbp)
	movl	$5, -100(%rbp)
	movq	-96(%rbp), %rax
	.loc	3 524 11                ## /Applications/Xcode.app/Contents/Developer/Toolchains/XcodeDefault.xctoolchain/usr/bin/../include/c++/v1/ios:524:11
Ltmp166:
	movl	32(%rax), %edx
	.loc	3 524 22 is_stmt 0      ## /Applications/Xcode.app/Contents/Developer/Toolchains/XcodeDefault.xctoolchain/usr/bin/../include/c++/v1/ios:524:22
	orl	$5, %edx
	.loc	3 524 5                 ## /Applications/Xcode.app/Contents/Developer/Toolchains/XcodeDefault.xctoolchain/usr/bin/../include/c++/v1/ios:524:5
Ltmp126:
	movq	%rax, %rdi
	movl	%edx, %esi
	callq	__ZNSt3__18ios_base5clearEj
Ltmp127:
	jmp	LBB16_17
Ltmp167:
LBB16_17:
	##DEBUG_VALUE: __put_character_sequence<char, std::__1::char_traits<char> >:__len <- [%RBP+-200]
	##DEBUG_VALUE: __put_character_sequence<char, std::__1::char_traits<char> >:__str <- [%RBP+-192]
	##DEBUG_VALUE: __put_character_sequence<char, std::__1::char_traits<char> >:__os <- [%RBP+-184]
	.loc	3 589 87 is_stmt 1      ## /Applications/Xcode.app/Contents/Developer/Toolchains/XcodeDefault.xctoolchain/usr/bin/../include/c++/v1/ios:589:87
	jmp	LBB16_18
Ltmp168:
LBB16_18:
	##DEBUG_VALUE: __put_character_sequence<char, std::__1::char_traits<char> >:__len <- [%RBP+-200]
	##DEBUG_VALUE: __put_character_sequence<char, std::__1::char_traits<char> >:__str <- [%RBP+-192]
	##DEBUG_VALUE: __put_character_sequence<char, std::__1::char_traits<char> >:__os <- [%RBP+-184]
	.loc	15 763 17               ## /Applications/Xcode.app/Contents/Developer/Toolchains/XcodeDefault.xctoolchain/usr/bin/../include/c++/v1/ostream:763:17
	jmp	LBB16_25
Ltmp169:
LBB16_19:
	##DEBUG_VALUE: __put_character_sequence<char, std::__1::char_traits<char> >:__len <- [%RBP+-200]
	##DEBUG_VALUE: __put_character_sequence<char, std::__1::char_traits<char> >:__str <- [%RBP+-192]
	##DEBUG_VALUE: __put_character_sequence<char, std::__1::char_traits<char> >:__os <- [%RBP+-184]
Ltmp116:
	.loc	15 773 1                ## /Applications/Xcode.app/Contents/Developer/Toolchains/XcodeDefault.xctoolchain/usr/bin/../include/c++/v1/ostream:773:1
	movl	%edx, %ecx
	movq	%rax, -224(%rbp)
	movl	%ecx, -228(%rbp)
	jmp	LBB16_22
LBB16_20:
	##DEBUG_VALUE: __put_character_sequence<char, std::__1::char_traits<char> >:__len <- [%RBP+-200]
	##DEBUG_VALUE: __put_character_sequence<char, std::__1::char_traits<char> >:__str <- [%RBP+-192]
	##DEBUG_VALUE: __put_character_sequence<char, std::__1::char_traits<char> >:__os <- [%RBP+-184]
Ltmp128:
	.loc	15 773 1 is_stmt 0      ## /Applications/Xcode.app/Contents/Developer/Toolchains/XcodeDefault.xctoolchain/usr/bin/../include/c++/v1/ostream:773:1
Ltmp170:
	movl	%edx, %ecx
	movq	%rax, -352(%rbp)        ## 8-byte Spill
	movl	%ecx, -356(%rbp)        ## 4-byte Spill
	jmp	LBB16_21
LBB16_21:
	##DEBUG_VALUE: __put_character_sequence<char, std::__1::char_traits<char> >:__len <- [%RBP+-200]
	##DEBUG_VALUE: __put_character_sequence<char, std::__1::char_traits<char> >:__str <- [%RBP+-192]
	##DEBUG_VALUE: __put_character_sequence<char, std::__1::char_traits<char> >:__os <- [%RBP+-184]
	movl	-356(%rbp), %eax        ## 4-byte Reload
	movq	-352(%rbp), %rcx        ## 8-byte Reload
	leaq	-216(%rbp), %rdi
	movq	%rcx, -224(%rbp)
	movl	%eax, -228(%rbp)
Ltmp171:
	.loc	15 766 5 is_stmt 1      ## /Applications/Xcode.app/Contents/Developer/Toolchains/XcodeDefault.xctoolchain/usr/bin/../include/c++/v1/ostream:766:5
	callq	__ZNSt3__113basic_ostreamIcNS_11char_traitsIcEEE6sentryD1Ev
LBB16_22:
	##DEBUG_VALUE: __put_character_sequence<char, std::__1::char_traits<char> >:__len <- [%RBP+-200]
	##DEBUG_VALUE: __put_character_sequence<char, std::__1::char_traits<char> >:__str <- [%RBP+-192]
	##DEBUG_VALUE: __put_character_sequence<char, std::__1::char_traits<char> >:__os <- [%RBP+-184]
	.loc	15 766 5 is_stmt 0      ## /Applications/Xcode.app/Contents/Developer/Toolchains/XcodeDefault.xctoolchain/usr/bin/../include/c++/v1/ostream:766:5
Ltmp172:
	movq	-224(%rbp), %rdi
	callq	___cxa_begin_catch
Ltmp173:
	.loc	15 769 9 is_stmt 1      ## /Applications/Xcode.app/Contents/Developer/Toolchains/XcodeDefault.xctoolchain/usr/bin/../include/c++/v1/ostream:769:9
	movq	-184(%rbp), %rdi
	movq	(%rdi), %rcx
	movq	-24(%rcx), %rcx
	addq	%rcx, %rdi
Ltmp129:
	movq	%rax, -376(%rbp)        ## 8-byte Spill
	callq	__ZNSt3__18ios_base33__set_badbit_and_consider_rethrowEv
Ltmp130:
	jmp	LBB16_23
LBB16_23:
	##DEBUG_VALUE: __put_character_sequence<char, std::__1::char_traits<char> >:__len <- [%RBP+-200]
	##DEBUG_VALUE: __put_character_sequence<char, std::__1::char_traits<char> >:__str <- [%RBP+-192]
	##DEBUG_VALUE: __put_character_sequence<char, std::__1::char_traits<char> >:__os <- [%RBP+-184]
	.loc	15 770 5                ## /Applications/Xcode.app/Contents/Developer/Toolchains/XcodeDefault.xctoolchain/usr/bin/../include/c++/v1/ostream:770:5
	callq	___cxa_end_catch
Ltmp174:
LBB16_24:
	##DEBUG_VALUE: __put_character_sequence<char, std::__1::char_traits<char> >:__len <- [%RBP+-200]
	##DEBUG_VALUE: __put_character_sequence<char, std::__1::char_traits<char> >:__str <- [%RBP+-192]
	##DEBUG_VALUE: __put_character_sequence<char, std::__1::char_traits<char> >:__os <- [%RBP+-184]
	.loc	15 772 12               ## /Applications/Xcode.app/Contents/Developer/Toolchains/XcodeDefault.xctoolchain/usr/bin/../include/c++/v1/ostream:772:12
	movq	-184(%rbp), %rax
	.loc	15 772 5 is_stmt 0      ## /Applications/Xcode.app/Contents/Developer/Toolchains/XcodeDefault.xctoolchain/usr/bin/../include/c++/v1/ostream:772:5
	addq	$384, %rsp              ## imm = 0x180
	popq	%rbp
	retq
LBB16_25:
	##DEBUG_VALUE: __put_character_sequence<char, std::__1::char_traits<char> >:__len <- [%RBP+-200]
	##DEBUG_VALUE: __put_character_sequence<char, std::__1::char_traits<char> >:__str <- [%RBP+-192]
	##DEBUG_VALUE: __put_character_sequence<char, std::__1::char_traits<char> >:__os <- [%RBP+-184]
	.loc	15 764 9 is_stmt 1      ## /Applications/Xcode.app/Contents/Developer/Toolchains/XcodeDefault.xctoolchain/usr/bin/../include/c++/v1/ostream:764:9
Ltmp175:
	jmp	LBB16_26
Ltmp176:
LBB16_26:
	##DEBUG_VALUE: __put_character_sequence<char, std::__1::char_traits<char> >:__len <- [%RBP+-200]
	##DEBUG_VALUE: __put_character_sequence<char, std::__1::char_traits<char> >:__str <- [%RBP+-192]
	##DEBUG_VALUE: __put_character_sequence<char, std::__1::char_traits<char> >:__os <- [%RBP+-184]
	leaq	-216(%rbp), %rdi
	.loc	15 766 5                ## /Applications/Xcode.app/Contents/Developer/Toolchains/XcodeDefault.xctoolchain/usr/bin/../include/c++/v1/ostream:766:5
	callq	__ZNSt3__113basic_ostreamIcNS_11char_traitsIcEEE6sentryD1Ev
	.loc	15 766 5 is_stmt 0      ## /Applications/Xcode.app/Contents/Developer/Toolchains/XcodeDefault.xctoolchain/usr/bin/../include/c++/v1/ostream:766:5
Ltmp177:
	jmp	LBB16_24
Ltmp178:
LBB16_27:
	##DEBUG_VALUE: __put_character_sequence<char, std::__1::char_traits<char> >:__len <- [%RBP+-200]
	##DEBUG_VALUE: __put_character_sequence<char, std::__1::char_traits<char> >:__str <- [%RBP+-192]
	##DEBUG_VALUE: __put_character_sequence<char, std::__1::char_traits<char> >:__os <- [%RBP+-184]
Ltmp131:
	.loc	15 773 1 is_stmt 1      ## /Applications/Xcode.app/Contents/Developer/Toolchains/XcodeDefault.xctoolchain/usr/bin/../include/c++/v1/ostream:773:1
Ltmp179:
	movl	%edx, %ecx
	movq	%rax, -224(%rbp)
	movl	%ecx, -228(%rbp)
	.loc	15 770 5                ## /Applications/Xcode.app/Contents/Developer/Toolchains/XcodeDefault.xctoolchain/usr/bin/../include/c++/v1/ostream:770:5
Ltmp132:
	callq	___cxa_end_catch
Ltmp133:
	jmp	LBB16_28
LBB16_28:
	##DEBUG_VALUE: __put_character_sequence<char, std::__1::char_traits<char> >:__len <- [%RBP+-200]
	##DEBUG_VALUE: __put_character_sequence<char, std::__1::char_traits<char> >:__str <- [%RBP+-192]
	##DEBUG_VALUE: __put_character_sequence<char, std::__1::char_traits<char> >:__os <- [%RBP+-184]
	jmp	LBB16_29
LBB16_29:
	##DEBUG_VALUE: __put_character_sequence<char, std::__1::char_traits<char> >:__len <- [%RBP+-200]
	##DEBUG_VALUE: __put_character_sequence<char, std::__1::char_traits<char> >:__str <- [%RBP+-192]
	##DEBUG_VALUE: __put_character_sequence<char, std::__1::char_traits<char> >:__os <- [%RBP+-184]
	movq	-224(%rbp), %rdi
	callq	__Unwind_Resume
LBB16_30:
	##DEBUG_VALUE: __put_character_sequence<char, std::__1::char_traits<char> >:__len <- [%RBP+-200]
	##DEBUG_VALUE: __put_character_sequence<char, std::__1::char_traits<char> >:__str <- [%RBP+-192]
	##DEBUG_VALUE: __put_character_sequence<char, std::__1::char_traits<char> >:__os <- [%RBP+-184]
Ltmp134:
	movl	%edx, %ecx
	movq	%rax, %rdi
	movl	%ecx, -380(%rbp)        ## 4-byte Spill
	callq	___clang_call_terminate
Ltmp180:
Lfunc_end16:
	.cfi_endproc
	.section	__TEXT,__gcc_except_tab
	.align	2
GCC_except_table16:
Lexception2:
	.byte	255                     ## @LPStart Encoding = omit
	.byte	155                     ## @TType Encoding = indirect pcrel sdata4
	.asciz	"\201\201\200\200"      ## @TType base offset
	.byte	3                       ## Call site Encoding = udata4
	.byte	117                     ## Call site table length
Lset10 = Ltmp114-Lfunc_begin16          ## >> Call Site 1 <<
	.long	Lset10
Lset11 = Ltmp115-Ltmp114                ##   Call between Ltmp114 and Ltmp115
	.long	Lset11
Lset12 = Ltmp116-Lfunc_begin16          ##     jumps to Ltmp116
	.long	Lset12
	.byte	5                       ##   On action: 3
Lset13 = Ltmp117-Lfunc_begin16          ## >> Call Site 2 <<
	.long	Lset13
Lset14 = Ltmp118-Ltmp117                ##   Call between Ltmp117 and Ltmp118
	.long	Lset14
Lset15 = Ltmp128-Lfunc_begin16          ##     jumps to Ltmp128
	.long	Lset15
	.byte	5                       ##   On action: 3
Lset16 = Ltmp119-Lfunc_begin16          ## >> Call Site 3 <<
	.long	Lset16
Lset17 = Ltmp122-Ltmp119                ##   Call between Ltmp119 and Ltmp122
	.long	Lset17
Lset18 = Ltmp123-Lfunc_begin16          ##     jumps to Ltmp123
	.long	Lset18
	.byte	3                       ##   On action: 2
Lset19 = Ltmp124-Lfunc_begin16          ## >> Call Site 4 <<
	.long	Lset19
Lset20 = Ltmp127-Ltmp124                ##   Call between Ltmp124 and Ltmp127
	.long	Lset20
Lset21 = Ltmp128-Lfunc_begin16          ##     jumps to Ltmp128
	.long	Lset21
	.byte	5                       ##   On action: 3
Lset22 = Ltmp127-Lfunc_begin16          ## >> Call Site 5 <<
	.long	Lset22
Lset23 = Ltmp129-Ltmp127                ##   Call between Ltmp127 and Ltmp129
	.long	Lset23
	.long	0                       ##     has no landing pad
	.byte	0                       ##   On action: cleanup
Lset24 = Ltmp129-Lfunc_begin16          ## >> Call Site 6 <<
	.long	Lset24
Lset25 = Ltmp130-Ltmp129                ##   Call between Ltmp129 and Ltmp130
	.long	Lset25
Lset26 = Ltmp131-Lfunc_begin16          ##     jumps to Ltmp131
	.long	Lset26
	.byte	0                       ##   On action: cleanup
Lset27 = Ltmp130-Lfunc_begin16          ## >> Call Site 7 <<
	.long	Lset27
Lset28 = Ltmp132-Ltmp130                ##   Call between Ltmp130 and Ltmp132
	.long	Lset28
	.long	0                       ##     has no landing pad
	.byte	0                       ##   On action: cleanup
Lset29 = Ltmp132-Lfunc_begin16          ## >> Call Site 8 <<
	.long	Lset29
Lset30 = Ltmp133-Ltmp132                ##   Call between Ltmp132 and Ltmp133
	.long	Lset30
Lset31 = Ltmp134-Lfunc_begin16          ##     jumps to Ltmp134
	.long	Lset31
	.byte	5                       ##   On action: 3
Lset32 = Ltmp133-Lfunc_begin16          ## >> Call Site 9 <<
	.long	Lset32
Lset33 = Lfunc_end16-Ltmp133            ##   Call between Ltmp133 and Lfunc_end16
	.long	Lset33
	.long	0                       ##     has no landing pad
	.byte	0                       ##   On action: cleanup
	.byte	0                       ## >> Action Record 1 <<
                                        ##   Cleanup
	.byte	0                       ##   No further actions
	.byte	1                       ## >> Action Record 2 <<
                                        ##   Catch TypeInfo 1
	.byte	125                     ##   Continue to action 1
	.byte	1                       ## >> Action Record 3 <<
                                        ##   Catch TypeInfo 1
	.byte	0                       ##   No further actions
                                        ## >> Catch TypeInfos <<
	.long	0                       ## TypeInfo 1
	.align	2

	.section	__TEXT,__text,regular,pure_instructions
	.private_extern	__ZNSt3__111char_traitsIcE6lengthEPKc
	.globl	__ZNSt3__111char_traitsIcE6lengthEPKc
	.weak_def_can_be_hidden	__ZNSt3__111char_traitsIcE6lengthEPKc
	.align	4, 0x90
__ZNSt3__111char_traitsIcE6lengthEPKc:  ## @_ZNSt3__111char_traitsIcE6lengthEPKc
Lfunc_begin17:
	.loc	6 644 0                 ## /Applications/Xcode.app/Contents/Developer/Toolchains/XcodeDefault.xctoolchain/usr/bin/../include/c++/v1/string:644:0
	.cfi_startproc
## BB#0:
	pushq	%rbp
Ltmp181:
	.cfi_def_cfa_offset 16
Ltmp182:
	.cfi_offset %rbp, -16
	movq	%rsp, %rbp
Ltmp183:
	.cfi_def_cfa_register %rbp
	subq	$16, %rsp
	movq	%rdi, -8(%rbp)
	.loc	6 644 70 prologue_end   ## /Applications/Xcode.app/Contents/Developer/Toolchains/XcodeDefault.xctoolchain/usr/bin/../include/c++/v1/string:644:70
Ltmp184:
	movq	-8(%rbp), %rdi
	.loc	6 644 63 is_stmt 0      ## /Applications/Xcode.app/Contents/Developer/Toolchains/XcodeDefault.xctoolchain/usr/bin/../include/c++/v1/string:644:63
	callq	_strlen
	.loc	6 644 56                ## /Applications/Xcode.app/Contents/Developer/Toolchains/XcodeDefault.xctoolchain/usr/bin/../include/c++/v1/string:644:56
	addq	$16, %rsp
	popq	%rbp
	retq
Ltmp185:
Lfunc_end17:
	.cfi_endproc

	.private_extern	__ZNSt3__116__pad_and_outputIcNS_11char_traitsIcEEEENS_19ostreambuf_iteratorIT_T0_EES6_PKS4_S8_S8_RNS_8ios_baseES4_
	.globl	__ZNSt3__116__pad_and_outputIcNS_11char_traitsIcEEEENS_19ostreambuf_iteratorIT_T0_EES6_PKS4_S8_S8_RNS_8ios_baseES4_
	.weak_def_can_be_hidden	__ZNSt3__116__pad_and_outputIcNS_11char_traitsIcEEEENS_19ostreambuf_iteratorIT_T0_EES6_PKS4_S8_S8_RNS_8ios_baseES4_
	.align	4, 0x90
__ZNSt3__116__pad_and_outputIcNS_11char_traitsIcEEEENS_19ostreambuf_iteratorIT_T0_EES6_PKS4_S8_S8_RNS_8ios_baseES4_: ## @_ZNSt3__116__pad_and_outputIcNS_11char_traitsIcEEEENS_19ostreambuf_iteratorIT_T0_EES6_PKS4_S8_S8_RNS_8ios_baseES4_
Lfunc_begin18:
	.file	54 "/Applications/Xcode.app/Contents/Developer/Toolchains/XcodeDefault.xctoolchain/usr/bin/../include/c++/v1" "locale"
	.loc	54 1486 0 is_stmt 1     ## /Applications/Xcode.app/Contents/Developer/Toolchains/XcodeDefault.xctoolchain/usr/bin/../include/c++/v1/locale:1486:0
	.cfi_startproc
	.cfi_personality 155, ___gxx_personality_v0
	.cfi_lsda 16, Lexception3
## BB#0:
	pushq	%rbp
Ltmp189:
	.cfi_def_cfa_offset 16
Ltmp190:
	.cfi_offset %rbp, -16
	movq	%rsp, %rbp
Ltmp191:
	.cfi_def_cfa_register %rbp
	subq	$480, %rsp              ## imm = 0x1E0
	movb	%r9b, %al
	movq	%rdi, -312(%rbp)
	movq	%rsi, -320(%rbp)
	movq	%rdx, -328(%rbp)
	movq	%rcx, -336(%rbp)
	movq	%r8, -344(%rbp)
	movb	%al, -345(%rbp)
	.loc	54 1487 21 prologue_end ## /Applications/Xcode.app/Contents/Developer/Toolchains/XcodeDefault.xctoolchain/usr/bin/../include/c++/v1/locale:1487:21
Ltmp192:
	cmpq	$0, -312(%rbp)
Ltmp193:
	.loc	54 1487 9 is_stmt 0     ## /Applications/Xcode.app/Contents/Developer/Toolchains/XcodeDefault.xctoolchain/usr/bin/../include/c++/v1/locale:1487:9
	jne	LBB18_2
## BB#1:
	.loc	54 1488 16 is_stmt 1    ## /Applications/Xcode.app/Contents/Developer/Toolchains/XcodeDefault.xctoolchain/usr/bin/../include/c++/v1/locale:1488:16
Ltmp194:
	movq	-312(%rbp), %rax
	movq	%rax, -304(%rbp)
	.loc	54 1488 9 is_stmt 0     ## /Applications/Xcode.app/Contents/Developer/Toolchains/XcodeDefault.xctoolchain/usr/bin/../include/c++/v1/locale:1488:9
	jmp	LBB18_26
Ltmp195:
LBB18_2:
	.loc	54 1489 23 is_stmt 1    ## /Applications/Xcode.app/Contents/Developer/Toolchains/XcodeDefault.xctoolchain/usr/bin/../include/c++/v1/locale:1489:23
	movq	-336(%rbp), %rax
	.loc	54 1489 30 is_stmt 0    ## /Applications/Xcode.app/Contents/Developer/Toolchains/XcodeDefault.xctoolchain/usr/bin/../include/c++/v1/locale:1489:30
	movq	-320(%rbp), %rcx
	.loc	54 1489 28              ## /Applications/Xcode.app/Contents/Developer/Toolchains/XcodeDefault.xctoolchain/usr/bin/../include/c++/v1/locale:1489:28
	subq	%rcx, %rax
	.loc	54 1489 16              ## /Applications/Xcode.app/Contents/Developer/Toolchains/XcodeDefault.xctoolchain/usr/bin/../include/c++/v1/locale:1489:16
	movq	%rax, -360(%rbp)
	.loc	54 1490 23 is_stmt 1    ## /Applications/Xcode.app/Contents/Developer/Toolchains/XcodeDefault.xctoolchain/usr/bin/../include/c++/v1/locale:1490:23
	movq	-344(%rbp), %rax
	movq	%rax, -296(%rbp)
	movq	-296(%rbp), %rax
	.loc	3 499 12                ## /Applications/Xcode.app/Contents/Developer/Toolchains/XcodeDefault.xctoolchain/usr/bin/../include/c++/v1/ios:499:12
Ltmp196:
	movq	24(%rax), %rax
Ltmp197:
	.loc	54 1490 16              ## /Applications/Xcode.app/Contents/Developer/Toolchains/XcodeDefault.xctoolchain/usr/bin/../include/c++/v1/locale:1490:16
	movq	%rax, -368(%rbp)
	.loc	54 1491 9               ## /Applications/Xcode.app/Contents/Developer/Toolchains/XcodeDefault.xctoolchain/usr/bin/../include/c++/v1/locale:1491:9
Ltmp198:
	movq	-368(%rbp), %rax
	.loc	54 1491 14 is_stmt 0    ## /Applications/Xcode.app/Contents/Developer/Toolchains/XcodeDefault.xctoolchain/usr/bin/../include/c++/v1/locale:1491:14
	cmpq	-360(%rbp), %rax
Ltmp199:
	.loc	54 1491 9               ## /Applications/Xcode.app/Contents/Developer/Toolchains/XcodeDefault.xctoolchain/usr/bin/../include/c++/v1/locale:1491:9
	jle	LBB18_4
## BB#3:
	.loc	54 1492 17 is_stmt 1    ## /Applications/Xcode.app/Contents/Developer/Toolchains/XcodeDefault.xctoolchain/usr/bin/../include/c++/v1/locale:1492:17
Ltmp200:
	movq	-360(%rbp), %rax
	.loc	54 1492 14 is_stmt 0    ## /Applications/Xcode.app/Contents/Developer/Toolchains/XcodeDefault.xctoolchain/usr/bin/../include/c++/v1/locale:1492:14
	movq	-368(%rbp), %rcx
	subq	%rax, %rcx
	movq	%rcx, -368(%rbp)
	.loc	54 1492 9               ## /Applications/Xcode.app/Contents/Developer/Toolchains/XcodeDefault.xctoolchain/usr/bin/../include/c++/v1/locale:1492:9
	jmp	LBB18_5
LBB18_4:
	.loc	54 1494 14 is_stmt 1    ## /Applications/Xcode.app/Contents/Developer/Toolchains/XcodeDefault.xctoolchain/usr/bin/../include/c++/v1/locale:1494:14
	movq	$0, -368(%rbp)
Ltmp201:
LBB18_5:
	.loc	54 1495 23              ## /Applications/Xcode.app/Contents/Developer/Toolchains/XcodeDefault.xctoolchain/usr/bin/../include/c++/v1/locale:1495:23
	movq	-328(%rbp), %rax
	.loc	54 1495 30 is_stmt 0    ## /Applications/Xcode.app/Contents/Developer/Toolchains/XcodeDefault.xctoolchain/usr/bin/../include/c++/v1/locale:1495:30
	movq	-320(%rbp), %rcx
	.loc	54 1495 28              ## /Applications/Xcode.app/Contents/Developer/Toolchains/XcodeDefault.xctoolchain/usr/bin/../include/c++/v1/locale:1495:28
	subq	%rcx, %rax
	.loc	54 1495 16              ## /Applications/Xcode.app/Contents/Developer/Toolchains/XcodeDefault.xctoolchain/usr/bin/../include/c++/v1/locale:1495:16
	movq	%rax, -376(%rbp)
	.loc	54 1496 14 is_stmt 1    ## /Applications/Xcode.app/Contents/Developer/Toolchains/XcodeDefault.xctoolchain/usr/bin/../include/c++/v1/locale:1496:14
Ltmp202:
	cmpq	$0, -376(%rbp)
Ltmp203:
	.loc	54 1496 9 is_stmt 0     ## /Applications/Xcode.app/Contents/Developer/Toolchains/XcodeDefault.xctoolchain/usr/bin/../include/c++/v1/locale:1496:9
	jle	LBB18_9
## BB#6:
	.loc	54 1498 17 is_stmt 1    ## /Applications/Xcode.app/Contents/Developer/Toolchains/XcodeDefault.xctoolchain/usr/bin/../include/c++/v1/locale:1498:17
Ltmp204:
	movq	-312(%rbp), %rax
	.loc	54 1498 32 is_stmt 0    ## /Applications/Xcode.app/Contents/Developer/Toolchains/XcodeDefault.xctoolchain/usr/bin/../include/c++/v1/locale:1498:32
	movq	-320(%rbp), %rcx
	.loc	54 1498 38              ## /Applications/Xcode.app/Contents/Developer/Toolchains/XcodeDefault.xctoolchain/usr/bin/../include/c++/v1/locale:1498:38
	movq	-376(%rbp), %rdx
	.loc	54 1498 13              ## /Applications/Xcode.app/Contents/Developer/Toolchains/XcodeDefault.xctoolchain/usr/bin/../include/c++/v1/locale:1498:13
	movq	%rax, -224(%rbp)
	movq	%rcx, -232(%rbp)
	movq	%rdx, -240(%rbp)
	movq	-224(%rbp), %rax
	.loc	14 360 12 is_stmt 1     ## /Applications/Xcode.app/Contents/Developer/Toolchains/XcodeDefault.xctoolchain/usr/bin/../include/c++/v1/streambuf:360:12
Ltmp205:
	movq	(%rax), %rcx
	movq	96(%rcx), %rcx
	.loc	14 360 19 is_stmt 0     ## /Applications/Xcode.app/Contents/Developer/Toolchains/XcodeDefault.xctoolchain/usr/bin/../include/c++/v1/streambuf:360:19
	movq	-232(%rbp), %rsi
	.loc	14 360 24               ## /Applications/Xcode.app/Contents/Developer/Toolchains/XcodeDefault.xctoolchain/usr/bin/../include/c++/v1/streambuf:360:24
	movq	-240(%rbp), %rdx
	.loc	14 360 12               ## /Applications/Xcode.app/Contents/Developer/Toolchains/XcodeDefault.xctoolchain/usr/bin/../include/c++/v1/streambuf:360:12
	movq	%rax, %rdi
	callq	*%rcx
Ltmp206:
	.loc	54 1498 44 is_stmt 1    ## /Applications/Xcode.app/Contents/Developer/Toolchains/XcodeDefault.xctoolchain/usr/bin/../include/c++/v1/locale:1498:44
	cmpq	-376(%rbp), %rax
Ltmp207:
	.loc	54 1498 13 is_stmt 0    ## /Applications/Xcode.app/Contents/Developer/Toolchains/XcodeDefault.xctoolchain/usr/bin/../include/c++/v1/locale:1498:13
	je	LBB18_8
## BB#7:
	.loc	54 1500 25 is_stmt 1    ## /Applications/Xcode.app/Contents/Developer/Toolchains/XcodeDefault.xctoolchain/usr/bin/../include/c++/v1/locale:1500:25
Ltmp208:
	movq	$0, -312(%rbp)
	.loc	54 1501 20              ## /Applications/Xcode.app/Contents/Developer/Toolchains/XcodeDefault.xctoolchain/usr/bin/../include/c++/v1/locale:1501:20
	movq	-312(%rbp), %rax
	movq	%rax, -304(%rbp)
	.loc	54 1501 13 is_stmt 0    ## /Applications/Xcode.app/Contents/Developer/Toolchains/XcodeDefault.xctoolchain/usr/bin/../include/c++/v1/locale:1501:13
	jmp	LBB18_26
Ltmp209:
LBB18_8:
	.loc	54 1503 5 is_stmt 1     ## /Applications/Xcode.app/Contents/Developer/Toolchains/XcodeDefault.xctoolchain/usr/bin/../include/c++/v1/locale:1503:5
	jmp	LBB18_9
Ltmp210:
LBB18_9:
	.loc	54 1504 14              ## /Applications/Xcode.app/Contents/Developer/Toolchains/XcodeDefault.xctoolchain/usr/bin/../include/c++/v1/locale:1504:14
	cmpq	$0, -368(%rbp)
Ltmp211:
	.loc	54 1504 9 is_stmt 0     ## /Applications/Xcode.app/Contents/Developer/Toolchains/XcodeDefault.xctoolchain/usr/bin/../include/c++/v1/locale:1504:9
	jle	LBB18_21
## BB#10:
	xorl	%esi, %esi
	movl	$24, %eax
	movl	%eax, %edx
	leaq	-400(%rbp), %rcx
Ltmp212:
	##DEBUG_VALUE: __sp <- %RCX
	.loc	54 1506 44 is_stmt 1    ## /Applications/Xcode.app/Contents/Developer/Toolchains/XcodeDefault.xctoolchain/usr/bin/../include/c++/v1/locale:1506:44
	movq	-368(%rbp), %rdi
	.loc	54 1506 50 is_stmt 0    ## /Applications/Xcode.app/Contents/Developer/Toolchains/XcodeDefault.xctoolchain/usr/bin/../include/c++/v1/locale:1506:50
	movb	-345(%rbp), %r8b
	.loc	54 1506 39              ## /Applications/Xcode.app/Contents/Developer/Toolchains/XcodeDefault.xctoolchain/usr/bin/../include/c++/v1/locale:1506:39
	movq	%rcx, -200(%rbp)
	movq	%rdi, -208(%rbp)
	movb	%r8b, -209(%rbp)
	movq	-200(%rbp), %rcx
Ltmp213:
	.loc	6 2156 1 is_stmt 1      ## /Applications/Xcode.app/Contents/Developer/Toolchains/XcodeDefault.xctoolchain/usr/bin/../include/c++/v1/string:2156:1
	movq	-208(%rbp), %rdi
	movb	-209(%rbp), %r8b
	movq	%rcx, -176(%rbp)
	movq	%rdi, -184(%rbp)
	movb	%r8b, -185(%rbp)
	movq	-176(%rbp), %rcx
	.loc	6 1372 5                ## /Applications/Xcode.app/Contents/Developer/Toolchains/XcodeDefault.xctoolchain/usr/bin/../include/c++/v1/string:1372:5
Ltmp214:
	movq	%rcx, -168(%rbp)
	movq	-168(%rbp), %rdi
	.loc	7 2409 51               ## /Applications/Xcode.app/Contents/Developer/Toolchains/XcodeDefault.xctoolchain/usr/bin/../include/c++/v1/memory:2409:51
Ltmp215:
	movq	%rdi, -160(%rbp)
	movq	-160(%rbp), %rdi
	.loc	7 2409 31 is_stmt 0     ## /Applications/Xcode.app/Contents/Developer/Toolchains/XcodeDefault.xctoolchain/usr/bin/../include/c++/v1/memory:2409:31
Ltmp216:
	movq	%rdi, -152(%rbp)
	movq	-152(%rbp), %rdi
	.loc	7 2230 75 is_stmt 1     ## /Applications/Xcode.app/Contents/Developer/Toolchains/XcodeDefault.xctoolchain/usr/bin/../include/c++/v1/memory:2230:75
Ltmp217:
	movq	%rdi, %r9
	.loc	7 2230 31 is_stmt 0     ## /Applications/Xcode.app/Contents/Developer/Toolchains/XcodeDefault.xctoolchain/usr/bin/../include/c++/v1/memory:2230:31
	movq	%r9, -144(%rbp)
	.loc	7 2230 64               ## /Applications/Xcode.app/Contents/Developer/Toolchains/XcodeDefault.xctoolchain/usr/bin/../include/c++/v1/memory:2230:64
	movq	%rcx, -424(%rbp)        ## 8-byte Spill
	callq	_memset
Ltmp218:
	.loc	6 2157 12 is_stmt 1     ## /Applications/Xcode.app/Contents/Developer/Toolchains/XcodeDefault.xctoolchain/usr/bin/../include/c++/v1/string:2157:12
	movq	-184(%rbp), %rsi
	.loc	6 2157 5 is_stmt 0      ## /Applications/Xcode.app/Contents/Developer/Toolchains/XcodeDefault.xctoolchain/usr/bin/../include/c++/v1/string:2157:5
	movq	-424(%rbp), %rdi        ## 8-byte Reload
	movsbl	-185(%rbp), %edx
	callq	__ZNSt3__112basic_stringIcNS_11char_traitsIcEENS_9allocatorIcEEE6__initEmc
	leaq	-400(%rbp), %rcx
Ltmp219:
	.loc	54 1507 17 is_stmt 1    ## /Applications/Xcode.app/Contents/Developer/Toolchains/XcodeDefault.xctoolchain/usr/bin/../include/c++/v1/locale:1507:17
	movq	-312(%rbp), %rsi
	.loc	54 1507 32 is_stmt 0    ## /Applications/Xcode.app/Contents/Developer/Toolchains/XcodeDefault.xctoolchain/usr/bin/../include/c++/v1/locale:1507:32
	movq	%rcx, -136(%rbp)
	movq	-136(%rbp), %rcx
	.loc	6 1633 79 is_stmt 1     ## /Applications/Xcode.app/Contents/Developer/Toolchains/XcodeDefault.xctoolchain/usr/bin/../include/c++/v1/string:1633:79
Ltmp220:
	movq	%rcx, -128(%rbp)
	movq	-128(%rbp), %rcx
	.loc	6 1791 17               ## /Applications/Xcode.app/Contents/Developer/Toolchains/XcodeDefault.xctoolchain/usr/bin/../include/c++/v1/string:1791:17
Ltmp221:
	movq	%rcx, -120(%rbp)
	movq	-120(%rbp), %rdi
	.loc	6 1697 22               ## /Applications/Xcode.app/Contents/Developer/Toolchains/XcodeDefault.xctoolchain/usr/bin/../include/c++/v1/string:1697:22
Ltmp222:
	movq	%rdi, -112(%rbp)
	movq	-112(%rbp), %rdi
	.loc	7 2465 83               ## /Applications/Xcode.app/Contents/Developer/Toolchains/XcodeDefault.xctoolchain/usr/bin/../include/c++/v1/memory:2465:83
Ltmp223:
	movq	%rdi, -104(%rbp)
	movq	-104(%rbp), %rdi
Ltmp224:
	.loc	6 1697 22               ## /Applications/Xcode.app/Contents/Developer/Toolchains/XcodeDefault.xctoolchain/usr/bin/../include/c++/v1/string:1697:22
	movzbl	(%rdi), %eax
	.loc	6 1697 47 is_stmt 0     ## /Applications/Xcode.app/Contents/Developer/Toolchains/XcodeDefault.xctoolchain/usr/bin/../include/c++/v1/string:1697:47
	andl	$1, %eax
	.loc	6 1697 22               ## /Applications/Xcode.app/Contents/Developer/Toolchains/XcodeDefault.xctoolchain/usr/bin/../include/c++/v1/string:1697:22
	cmpl	$0, %eax
Ltmp225:
	.loc	6 1791 17 is_stmt 1     ## /Applications/Xcode.app/Contents/Developer/Toolchains/XcodeDefault.xctoolchain/usr/bin/../include/c++/v1/string:1791:17
	movq	%rsi, -432(%rbp)        ## 8-byte Spill
	movq	%rcx, -440(%rbp)        ## 8-byte Spill
	je	LBB18_12
## BB#11:
	.loc	6 1791 31 is_stmt 0     ## /Applications/Xcode.app/Contents/Developer/Toolchains/XcodeDefault.xctoolchain/usr/bin/../include/c++/v1/string:1791:31
	movq	-440(%rbp), %rax        ## 8-byte Reload
	movq	%rax, -56(%rbp)
	movq	-56(%rbp), %rcx
	.loc	6 1779 17 is_stmt 1     ## /Applications/Xcode.app/Contents/Developer/Toolchains/XcodeDefault.xctoolchain/usr/bin/../include/c++/v1/string:1779:17
Ltmp226:
	movq	%rcx, -48(%rbp)
	movq	-48(%rbp), %rcx
	.loc	7 2465 83               ## /Applications/Xcode.app/Contents/Developer/Toolchains/XcodeDefault.xctoolchain/usr/bin/../include/c++/v1/memory:2465:83
Ltmp227:
	movq	%rcx, -40(%rbp)
	movq	-40(%rbp), %rcx
Ltmp228:
	.loc	6 1779 34               ## /Applications/Xcode.app/Contents/Developer/Toolchains/XcodeDefault.xctoolchain/usr/bin/../include/c++/v1/string:1779:34
	movq	16(%rcx), %rcx
Ltmp229:
	.loc	6 1791 17               ## /Applications/Xcode.app/Contents/Developer/Toolchains/XcodeDefault.xctoolchain/usr/bin/../include/c++/v1/string:1791:17
	movq	%rcx, -448(%rbp)        ## 8-byte Spill
	jmp	LBB18_13
LBB18_12:
	.loc	6 1791 54 is_stmt 0     ## /Applications/Xcode.app/Contents/Developer/Toolchains/XcodeDefault.xctoolchain/usr/bin/../include/c++/v1/string:1791:54
	movq	-440(%rbp), %rax        ## 8-byte Reload
	movq	%rax, -96(%rbp)
	movq	-96(%rbp), %rcx
	.loc	6 1785 59 is_stmt 1     ## /Applications/Xcode.app/Contents/Developer/Toolchains/XcodeDefault.xctoolchain/usr/bin/../include/c++/v1/string:1785:59
Ltmp230:
	movq	%rcx, -88(%rbp)
	movq	-88(%rbp), %rcx
	.loc	7 2465 83               ## /Applications/Xcode.app/Contents/Developer/Toolchains/XcodeDefault.xctoolchain/usr/bin/../include/c++/v1/memory:2465:83
Ltmp231:
	movq	%rcx, -80(%rbp)
	movq	-80(%rbp), %rcx
Ltmp232:
	.loc	6 1785 76               ## /Applications/Xcode.app/Contents/Developer/Toolchains/XcodeDefault.xctoolchain/usr/bin/../include/c++/v1/string:1785:76
	addq	$1, %rcx
	.loc	6 1785 17 is_stmt 0     ## /Applications/Xcode.app/Contents/Developer/Toolchains/XcodeDefault.xctoolchain/usr/bin/../include/c++/v1/string:1785:17
	movq	%rcx, -72(%rbp)
	.loc	7 932 34 is_stmt 1      ## /Applications/Xcode.app/Contents/Developer/Toolchains/XcodeDefault.xctoolchain/usr/bin/../include/c++/v1/memory:932:34
Ltmp233:
	movq	-72(%rbp), %rcx
	.loc	7 932 17 is_stmt 0      ## /Applications/Xcode.app/Contents/Developer/Toolchains/XcodeDefault.xctoolchain/usr/bin/../include/c++/v1/memory:932:17
	movq	%rcx, -64(%rbp)
	.file	55 "/Applications/Xcode.app/Contents/Developer/Toolchains/XcodeDefault.xctoolchain/usr/bin/../include/c++/v1" "__functional_base"
	.loc	55 87 58 is_stmt 1      ## /Applications/Xcode.app/Contents/Developer/Toolchains/XcodeDefault.xctoolchain/usr/bin/../include/c++/v1/__functional_base:87:58
Ltmp234:
	movq	-64(%rbp), %rcx
	movq	%rcx, -448(%rbp)        ## 8-byte Spill
Ltmp235:
LBB18_13:
	.loc	6 1791 17               ## /Applications/Xcode.app/Contents/Developer/Toolchains/XcodeDefault.xctoolchain/usr/bin/../include/c++/v1/string:1791:17
	movq	-448(%rbp), %rax        ## 8-byte Reload
Ltmp236:
	.loc	6 1633 55               ## /Applications/Xcode.app/Contents/Developer/Toolchains/XcodeDefault.xctoolchain/usr/bin/../include/c++/v1/string:1633:55
	movq	%rax, -32(%rbp)
Ltmp237:
	.loc	54 1507 45              ## /Applications/Xcode.app/Contents/Developer/Toolchains/XcodeDefault.xctoolchain/usr/bin/../include/c++/v1/locale:1507:45
	movq	-368(%rbp), %rcx
	.loc	54 1507 13 is_stmt 0    ## /Applications/Xcode.app/Contents/Developer/Toolchains/XcodeDefault.xctoolchain/usr/bin/../include/c++/v1/locale:1507:13
	movq	-432(%rbp), %rdx        ## 8-byte Reload
	movq	%rdx, -8(%rbp)
	movq	%rax, -16(%rbp)
	movq	%rcx, -24(%rbp)
	movq	-8(%rbp), %rax
	.loc	14 360 12 is_stmt 1     ## /Applications/Xcode.app/Contents/Developer/Toolchains/XcodeDefault.xctoolchain/usr/bin/../include/c++/v1/streambuf:360:12
Ltmp238:
	movq	(%rax), %rsi
	movq	96(%rsi), %rsi
	.loc	14 360 19 is_stmt 0     ## /Applications/Xcode.app/Contents/Developer/Toolchains/XcodeDefault.xctoolchain/usr/bin/../include/c++/v1/streambuf:360:19
	movq	-16(%rbp), %rdi
	.loc	14 360 12               ## /Applications/Xcode.app/Contents/Developer/Toolchains/XcodeDefault.xctoolchain/usr/bin/../include/c++/v1/streambuf:360:12
Ltmp186:
	movq	%rdi, -456(%rbp)        ## 8-byte Spill
	movq	%rax, %rdi
	movq	-456(%rbp), %rax        ## 8-byte Reload
	movq	%rsi, -464(%rbp)        ## 8-byte Spill
	movq	%rax, %rsi
	movq	%rcx, %rdx
	movq	-464(%rbp), %rcx        ## 8-byte Reload
	callq	*%rcx
Ltmp187:
	movq	%rax, -472(%rbp)        ## 8-byte Spill
	jmp	LBB18_14
LBB18_14:
	.loc	14 360 5                ## /Applications/Xcode.app/Contents/Developer/Toolchains/XcodeDefault.xctoolchain/usr/bin/../include/c++/v1/streambuf:360:5
	jmp	LBB18_15
Ltmp239:
LBB18_15:
	.loc	54 1507 51 is_stmt 1    ## /Applications/Xcode.app/Contents/Developer/Toolchains/XcodeDefault.xctoolchain/usr/bin/../include/c++/v1/locale:1507:51
	movq	-472(%rbp), %rax        ## 8-byte Reload
	cmpq	-368(%rbp), %rax
Ltmp240:
	.loc	54 1507 13 is_stmt 0    ## /Applications/Xcode.app/Contents/Developer/Toolchains/XcodeDefault.xctoolchain/usr/bin/../include/c++/v1/locale:1507:13
	je	LBB18_18
## BB#16:
	.loc	54 1509 25 is_stmt 1    ## /Applications/Xcode.app/Contents/Developer/Toolchains/XcodeDefault.xctoolchain/usr/bin/../include/c++/v1/locale:1509:25
Ltmp241:
	movq	$0, -312(%rbp)
	.loc	54 1510 20              ## /Applications/Xcode.app/Contents/Developer/Toolchains/XcodeDefault.xctoolchain/usr/bin/../include/c++/v1/locale:1510:20
	movq	-312(%rbp), %rax
	movq	%rax, -304(%rbp)
	movl	$1, -416(%rbp)
	.loc	54 1510 13 is_stmt 0    ## /Applications/Xcode.app/Contents/Developer/Toolchains/XcodeDefault.xctoolchain/usr/bin/../include/c++/v1/locale:1510:13
	jmp	LBB18_19
Ltmp242:
LBB18_17:
Ltmp188:
	leaq	-400(%rbp), %rdi
	.loc	54 1524 1 is_stmt 1     ## /Applications/Xcode.app/Contents/Developer/Toolchains/XcodeDefault.xctoolchain/usr/bin/../include/c++/v1/locale:1524:1
	movl	%edx, %ecx
	movq	%rax, -408(%rbp)
	movl	%ecx, -412(%rbp)
Ltmp243:
	.loc	54 1512 5               ## /Applications/Xcode.app/Contents/Developer/Toolchains/XcodeDefault.xctoolchain/usr/bin/../include/c++/v1/locale:1512:5
	callq	__ZNSt3__112basic_stringIcNS_11char_traitsIcEENS_9allocatorIcEEED1Ev
	jmp	LBB18_27
LBB18_18:
	movl	$0, -416(%rbp)
LBB18_19:
	leaq	-400(%rbp), %rdi
	callq	__ZNSt3__112basic_stringIcNS_11char_traitsIcEENS_9allocatorIcEEED1Ev
	movl	-416(%rbp), %eax
	testl	%eax, %eax
	movl	%eax, -476(%rbp)        ## 4-byte Spill
	je	LBB18_20
	jmp	LBB18_29
LBB18_29:
	movl	-476(%rbp), %eax        ## 4-byte Reload
	subl	$1, %eax
	movl	%eax, -480(%rbp)        ## 4-byte Spill
	je	LBB18_26
	jmp	LBB18_28
LBB18_20:
	.loc	54 1512 5 is_stmt 0     ## /Applications/Xcode.app/Contents/Developer/Toolchains/XcodeDefault.xctoolchain/usr/bin/../include/c++/v1/locale:1512:5
Ltmp244:
	jmp	LBB18_21
Ltmp245:
LBB18_21:
	.loc	54 1513 12 is_stmt 1    ## /Applications/Xcode.app/Contents/Developer/Toolchains/XcodeDefault.xctoolchain/usr/bin/../include/c++/v1/locale:1513:12
	movq	-336(%rbp), %rax
	.loc	54 1513 19 is_stmt 0    ## /Applications/Xcode.app/Contents/Developer/Toolchains/XcodeDefault.xctoolchain/usr/bin/../include/c++/v1/locale:1513:19
	movq	-328(%rbp), %rcx
	.loc	54 1513 17              ## /Applications/Xcode.app/Contents/Developer/Toolchains/XcodeDefault.xctoolchain/usr/bin/../include/c++/v1/locale:1513:17
	subq	%rcx, %rax
	.loc	54 1513 10              ## /Applications/Xcode.app/Contents/Developer/Toolchains/XcodeDefault.xctoolchain/usr/bin/../include/c++/v1/locale:1513:10
	movq	%rax, -376(%rbp)
	.loc	54 1514 14 is_stmt 1    ## /Applications/Xcode.app/Contents/Developer/Toolchains/XcodeDefault.xctoolchain/usr/bin/../include/c++/v1/locale:1514:14
Ltmp246:
	cmpq	$0, -376(%rbp)
Ltmp247:
	.loc	54 1514 9 is_stmt 0     ## /Applications/Xcode.app/Contents/Developer/Toolchains/XcodeDefault.xctoolchain/usr/bin/../include/c++/v1/locale:1514:9
	jle	LBB18_25
## BB#22:
	.loc	54 1516 17 is_stmt 1    ## /Applications/Xcode.app/Contents/Developer/Toolchains/XcodeDefault.xctoolchain/usr/bin/../include/c++/v1/locale:1516:17
Ltmp248:
	movq	-312(%rbp), %rax
	.loc	54 1516 32 is_stmt 0    ## /Applications/Xcode.app/Contents/Developer/Toolchains/XcodeDefault.xctoolchain/usr/bin/../include/c++/v1/locale:1516:32
	movq	-328(%rbp), %rcx
	.loc	54 1516 38              ## /Applications/Xcode.app/Contents/Developer/Toolchains/XcodeDefault.xctoolchain/usr/bin/../include/c++/v1/locale:1516:38
	movq	-376(%rbp), %rdx
	.loc	54 1516 13              ## /Applications/Xcode.app/Contents/Developer/Toolchains/XcodeDefault.xctoolchain/usr/bin/../include/c++/v1/locale:1516:13
	movq	%rax, -248(%rbp)
	movq	%rcx, -256(%rbp)
	movq	%rdx, -264(%rbp)
	movq	-248(%rbp), %rax
	.loc	14 360 12 is_stmt 1     ## /Applications/Xcode.app/Contents/Developer/Toolchains/XcodeDefault.xctoolchain/usr/bin/../include/c++/v1/streambuf:360:12
Ltmp249:
	movq	(%rax), %rcx
	movq	96(%rcx), %rcx
	.loc	14 360 19 is_stmt 0     ## /Applications/Xcode.app/Contents/Developer/Toolchains/XcodeDefault.xctoolchain/usr/bin/../include/c++/v1/streambuf:360:19
	movq	-256(%rbp), %rsi
	.loc	14 360 24               ## /Applications/Xcode.app/Contents/Developer/Toolchains/XcodeDefault.xctoolchain/usr/bin/../include/c++/v1/streambuf:360:24
	movq	-264(%rbp), %rdx
	.loc	14 360 12               ## /Applications/Xcode.app/Contents/Developer/Toolchains/XcodeDefault.xctoolchain/usr/bin/../include/c++/v1/streambuf:360:12
	movq	%rax, %rdi
	callq	*%rcx
Ltmp250:
	.loc	54 1516 44 is_stmt 1    ## /Applications/Xcode.app/Contents/Developer/Toolchains/XcodeDefault.xctoolchain/usr/bin/../include/c++/v1/locale:1516:44
	cmpq	-376(%rbp), %rax
Ltmp251:
	.loc	54 1516 13 is_stmt 0    ## /Applications/Xcode.app/Contents/Developer/Toolchains/XcodeDefault.xctoolchain/usr/bin/../include/c++/v1/locale:1516:13
	je	LBB18_24
## BB#23:
	.loc	54 1518 25 is_stmt 1    ## /Applications/Xcode.app/Contents/Developer/Toolchains/XcodeDefault.xctoolchain/usr/bin/../include/c++/v1/locale:1518:25
Ltmp252:
	movq	$0, -312(%rbp)
	.loc	54 1519 20              ## /Applications/Xcode.app/Contents/Developer/Toolchains/XcodeDefault.xctoolchain/usr/bin/../include/c++/v1/locale:1519:20
	movq	-312(%rbp), %rax
	movq	%rax, -304(%rbp)
	.loc	54 1519 13 is_stmt 0    ## /Applications/Xcode.app/Contents/Developer/Toolchains/XcodeDefault.xctoolchain/usr/bin/../include/c++/v1/locale:1519:13
	jmp	LBB18_26
Ltmp253:
LBB18_24:
	.loc	54 1521 5 is_stmt 1     ## /Applications/Xcode.app/Contents/Developer/Toolchains/XcodeDefault.xctoolchain/usr/bin/../include/c++/v1/locale:1521:5
	jmp	LBB18_25
Ltmp254:
LBB18_25:
	.loc	54 1522 5               ## /Applications/Xcode.app/Contents/Developer/Toolchains/XcodeDefault.xctoolchain/usr/bin/../include/c++/v1/locale:1522:5
	movq	-344(%rbp), %rax
	movq	%rax, -272(%rbp)
	movq	$0, -280(%rbp)
	movq	-272(%rbp), %rax
	.loc	3 506 22                ## /Applications/Xcode.app/Contents/Developer/Toolchains/XcodeDefault.xctoolchain/usr/bin/../include/c++/v1/ios:506:22
Ltmp255:
	movq	24(%rax), %rcx
	.loc	3 506 16 is_stmt 0      ## /Applications/Xcode.app/Contents/Developer/Toolchains/XcodeDefault.xctoolchain/usr/bin/../include/c++/v1/ios:506:16
	movq	%rcx, -288(%rbp)
	.loc	3 507 16 is_stmt 1      ## /Applications/Xcode.app/Contents/Developer/Toolchains/XcodeDefault.xctoolchain/usr/bin/../include/c++/v1/ios:507:16
	movq	-280(%rbp), %rcx
	.loc	3 507 14 is_stmt 0      ## /Applications/Xcode.app/Contents/Developer/Toolchains/XcodeDefault.xctoolchain/usr/bin/../include/c++/v1/ios:507:14
	movq	%rcx, 24(%rax)
Ltmp256:
	.loc	54 1523 12 is_stmt 1    ## /Applications/Xcode.app/Contents/Developer/Toolchains/XcodeDefault.xctoolchain/usr/bin/../include/c++/v1/locale:1523:12
	movq	-312(%rbp), %rax
	movq	%rax, -304(%rbp)
LBB18_26:
	.loc	54 1524 1               ## /Applications/Xcode.app/Contents/Developer/Toolchains/XcodeDefault.xctoolchain/usr/bin/../include/c++/v1/locale:1524:1
	movq	-304(%rbp), %rax
	addq	$480, %rsp              ## imm = 0x1E0
	popq	%rbp
	retq
LBB18_27:
	.loc	54 1512 5               ## /Applications/Xcode.app/Contents/Developer/Toolchains/XcodeDefault.xctoolchain/usr/bin/../include/c++/v1/locale:1512:5
Ltmp257:
	movq	-408(%rbp), %rdi
	callq	__Unwind_Resume
Ltmp258:
LBB18_28:
Lfunc_end18:
	.cfi_endproc
	.section	__TEXT,__gcc_except_tab
	.align	2
GCC_except_table18:
Lexception3:
	.byte	255                     ## @LPStart Encoding = omit
	.byte	155                     ## @TType Encoding = indirect pcrel sdata4
	.byte	41                      ## @TType base offset
	.byte	3                       ## Call site Encoding = udata4
	.byte	39                      ## Call site table length
Lset34 = Lfunc_begin18-Lfunc_begin18    ## >> Call Site 1 <<
	.long	Lset34
Lset35 = Ltmp186-Lfunc_begin18          ##   Call between Lfunc_begin18 and Ltmp186
	.long	Lset35
	.long	0                       ##     has no landing pad
	.byte	0                       ##   On action: cleanup
Lset36 = Ltmp186-Lfunc_begin18          ## >> Call Site 2 <<
	.long	Lset36
Lset37 = Ltmp187-Ltmp186                ##   Call between Ltmp186 and Ltmp187
	.long	Lset37
Lset38 = Ltmp188-Lfunc_begin18          ##     jumps to Ltmp188
	.long	Lset38
	.byte	0                       ##   On action: cleanup
Lset39 = Ltmp187-Lfunc_begin18          ## >> Call Site 3 <<
	.long	Lset39
Lset40 = Lfunc_end18-Ltmp187            ##   Call between Ltmp187 and Lfunc_end18
	.long	Lset40
	.long	0                       ##     has no landing pad
	.byte	0                       ##   On action: cleanup
	.align	2

	.section	__TEXT,__text,regular,pure_instructions
	.private_extern	__ZNSt3__111char_traitsIcE11eq_int_typeEii
	.globl	__ZNSt3__111char_traitsIcE11eq_int_typeEii
	.weak_def_can_be_hidden	__ZNSt3__111char_traitsIcE11eq_int_typeEii
	.align	4, 0x90
__ZNSt3__111char_traitsIcE11eq_int_typeEii: ## @_ZNSt3__111char_traitsIcE11eq_int_typeEii
Lfunc_begin19:
	.loc	6 664 0                 ## /Applications/Xcode.app/Contents/Developer/Toolchains/XcodeDefault.xctoolchain/usr/bin/../include/c++/v1/string:664:0
	.cfi_startproc
## BB#0:
	pushq	%rbp
Ltmp259:
	.cfi_def_cfa_offset 16
Ltmp260:
	.cfi_offset %rbp, -16
	movq	%rsp, %rbp
Ltmp261:
	.cfi_def_cfa_register %rbp
	movl	%edi, -4(%rbp)
	movl	%esi, -8(%rbp)
	.loc	6 664 17 prologue_end   ## /Applications/Xcode.app/Contents/Developer/Toolchains/XcodeDefault.xctoolchain/usr/bin/../include/c++/v1/string:664:17
Ltmp262:
	movl	-4(%rbp), %esi
	.loc	6 664 22 is_stmt 0      ## /Applications/Xcode.app/Contents/Developer/Toolchains/XcodeDefault.xctoolchain/usr/bin/../include/c++/v1/string:664:22
	cmpl	-8(%rbp), %esi
	sete	%al
	.loc	6 664 10                ## /Applications/Xcode.app/Contents/Developer/Toolchains/XcodeDefault.xctoolchain/usr/bin/../include/c++/v1/string:664:10
	andb	$1, %al
	movzbl	%al, %eax
	popq	%rbp
	retq
Ltmp263:
Lfunc_end19:
	.cfi_endproc

	.private_extern	__ZNSt3__111char_traitsIcE3eofEv
	.globl	__ZNSt3__111char_traitsIcE3eofEv
	.weak_def_can_be_hidden	__ZNSt3__111char_traitsIcE3eofEv
	.align	4, 0x90
__ZNSt3__111char_traitsIcE3eofEv:       ## @_ZNSt3__111char_traitsIcE3eofEv
Lfunc_begin20:
	.loc	6 666 0 is_stmt 1       ## /Applications/Xcode.app/Contents/Developer/Toolchains/XcodeDefault.xctoolchain/usr/bin/../include/c++/v1/string:666:0
	.cfi_startproc
## BB#0:
	pushq	%rbp
Ltmp264:
	.cfi_def_cfa_offset 16
Ltmp265:
	.cfi_offset %rbp, -16
	movq	%rsp, %rbp
Ltmp266:
	.cfi_def_cfa_register %rbp
	movl	$4294967295, %eax       ## imm = 0xFFFFFFFF
	.loc	6 666 10 prologue_end   ## /Applications/Xcode.app/Contents/Developer/Toolchains/XcodeDefault.xctoolchain/usr/bin/../include/c++/v1/string:666:10
Ltmp267:
	popq	%rbp
	retq
Ltmp268:
Lfunc_end20:
	.cfi_endproc

	.private_extern	__ZN9HitRecordC1Ef6Vector
	.globl	__ZN9HitRecordC1Ef6Vector
	.weak_def_can_be_hidden	__ZN9HitRecordC1Ef6Vector
	.align	4, 0x90
__ZN9HitRecordC1Ef6Vector:              ## @_ZN9HitRecordC1Ef6Vector
Lfunc_begin21:
	.loc	17 9 0                  ## /Users/mdjasper/Sites/sandbox/graphics2/RayTracer/RayTracer/Shape.hpp:9:0
	.cfi_startproc
## BB#0:
	pushq	%rbp
Ltmp269:
	.cfi_def_cfa_offset 16
Ltmp270:
	.cfi_offset %rbp, -16
	movq	%rsp, %rbp
Ltmp271:
	.cfi_def_cfa_register %rbp
	subq	$64, %rsp
	##DEBUG_VALUE: HitRecord:this <- [%RBP+-40]
	##DEBUG_VALUE: HitRecord:t <- [%RBP+-44]
	##DEBUG_VALUE: HitRecord:n <- [%RBP+-16]
	movlps	%xmm1, -32(%rbp)
	movss	%xmm2, -24(%rbp)
	movl	-24(%rbp), %eax
	movl	%eax, -8(%rbp)
	movq	-32(%rbp), %rcx
	movq	%rcx, -16(%rbp)
	movq	%rdi, -40(%rbp)
	movss	%xmm0, -44(%rbp)
	movq	-40(%rbp), %rdi
	.loc	17 9 42 prologue_end    ## /Users/mdjasper/Sites/sandbox/graphics2/RayTracer/RayTracer/Shape.hpp:9:42
Ltmp272:
	movl	-8(%rbp), %eax
	movl	%eax, -56(%rbp)
	movq	-16(%rbp), %rcx
	movq	%rcx, -64(%rbp)
	movq	-64(%rbp), %xmm1        ## xmm1 = mem[0],zero
	movss	-56(%rbp), %xmm2        ## xmm2 = mem[0],zero,zero,zero
	callq	__ZN9HitRecordC2Ef6Vector
	.loc	17 9 43 is_stmt 0       ## /Users/mdjasper/Sites/sandbox/graphics2/RayTracer/RayTracer/Shape.hpp:9:43
	addq	$64, %rsp
	popq	%rbp
	retq
Ltmp273:
Lfunc_end21:
	.cfi_endproc

	.private_extern	__ZN9HitRecordC2Ef6Vector
	.globl	__ZN9HitRecordC2Ef6Vector
	.weak_def_can_be_hidden	__ZN9HitRecordC2Ef6Vector
	.align	4, 0x90
__ZN9HitRecordC2Ef6Vector:              ## @_ZN9HitRecordC2Ef6Vector
Lfunc_begin22:
	.loc	17 9 0 is_stmt 1        ## /Users/mdjasper/Sites/sandbox/graphics2/RayTracer/RayTracer/Shape.hpp:9:0
	.cfi_startproc
## BB#0:
	pushq	%rbp
Ltmp274:
	.cfi_def_cfa_offset 16
Ltmp275:
	.cfi_offset %rbp, -16
	movq	%rsp, %rbp
Ltmp276:
	.cfi_def_cfa_register %rbp
	movlps	%xmm1, -32(%rbp)
	movss	%xmm2, -24(%rbp)
	movq	-32(%rbp), %rax
	movq	%rax, -16(%rbp)
	movl	-24(%rbp), %ecx
	movl	%ecx, -8(%rbp)
	movq	%rdi, -40(%rbp)
	movss	%xmm0, -44(%rbp)
	movq	-40(%rbp), %rax
	.loc	17 9 34 prologue_end    ## /Users/mdjasper/Sites/sandbox/graphics2/RayTracer/RayTracer/Shape.hpp:9:34
Ltmp277:
	movss	-44(%rbp), %xmm0        ## xmm0 = mem[0],zero,zero,zero
	.loc	17 9 32 is_stmt 0       ## /Users/mdjasper/Sites/sandbox/graphics2/RayTracer/RayTracer/Shape.hpp:9:32
	movss	%xmm0, (%rax)
	.loc	17 9 38                 ## /Users/mdjasper/Sites/sandbox/graphics2/RayTracer/RayTracer/Shape.hpp:9:38
	movq	-16(%rbp), %rdi
	movq	%rdi, 4(%rax)
	movl	-8(%rbp), %ecx
	movl	%ecx, 12(%rax)
	.loc	17 9 43                 ## /Users/mdjasper/Sites/sandbox/graphics2/RayTracer/RayTracer/Shape.hpp:9:43
	popq	%rbp
	retq
Ltmp278:
Lfunc_end22:
	.cfi_endproc

	.section	__DATA,__const
	.globl	__ZTV5Plane             ## @_ZTV5Plane
	.align	3
__ZTV5Plane:
	.quad	0
	.quad	__ZTI5Plane
	.quad	__ZN5PlaneD1Ev
	.quad	__ZN5PlaneD0Ev
	.quad	__ZNK5Plane14getBoundingBoxEv
	.quad	__ZNK5Plane10intersectPE3Ray
	.quad	__ZNK5Plane9intersectE3Ray

	.section	__TEXT,__cstring,cstring_literals
L_.str:                                 ## @.str
	.asciz	"plane destroyed"

	.section	__TEXT,__const
	.globl	__ZTS5Plane             ## @_ZTS5Plane
__ZTS5Plane:
	.asciz	"5Plane"

	.section	__DATA,__const
	.globl	__ZTI5Plane             ## @_ZTI5Plane
	.align	4
__ZTI5Plane:
	.quad	__ZTVN10__cxxabiv120__si_class_type_infoE+16
	.quad	__ZTS5Plane
	.quad	__ZTI5Shape
